                                      1 ;--------------------------------------------------------
                                      2 ; File Created by SDCC : free open source ISO C Compiler
                                      3 ; Version 4.5.0 #15242 (MINGW64)
                                      4 ;--------------------------------------------------------
                                      5 	.module video
                                      6 	
                                      7 	.optsdcc -mz80 sdcccall(1)
                                      8 ;--------------------------------------------------------
                                      9 ; Public variables in this module
                                     10 ;--------------------------------------------------------
                                     11 	.globl _vga_fillRect_fast
                                     12 	.globl _vga_drawCharGL
                                     13 	.globl _test_fill
                                     14 	.globl _swap_int16
                                     15 	.globl _strlen
                                     16 	.globl _abs
                                     17 	.globl _textwrap
                                     18 	.globl __rotation
                                     19 	.globl __height
                                     20 	.globl __width
                                     21 	.globl _rotation
                                     22 	.globl _textdatum
                                     23 	.globl _textsize
                                     24 	.globl _textfont
                                     25 	.globl _padX
                                     26 	.globl _win_ye
                                     27 	.globl _win_xe
                                     28 	.globl _cursor_y
                                     29 	.globl _cursor_x
                                     30 	.globl _addr_col
                                     31 	.globl _addr_row
                                     32 	.globl _fontsloaded
                                     33 	.globl _textbgcolor
                                     34 	.globl _textcolor
                                     35 	.globl _chrtbl_f16
                                     36 	.globl _widtbl_f16
                                     37 	.globl _chr_f16_7F
                                     38 	.globl _chr_f16_7E
                                     39 	.globl _chr_f16_7D
                                     40 	.globl _chr_f16_7C
                                     41 	.globl _chr_f16_7B
                                     42 	.globl _chr_f16_7A
                                     43 	.globl _chr_f16_79
                                     44 	.globl _chr_f16_78
                                     45 	.globl _chr_f16_77
                                     46 	.globl _chr_f16_76
                                     47 	.globl _chr_f16_75
                                     48 	.globl _chr_f16_74
                                     49 	.globl _chr_f16_73
                                     50 	.globl _chr_f16_72
                                     51 	.globl _chr_f16_71
                                     52 	.globl _chr_f16_70
                                     53 	.globl _chr_f16_6F
                                     54 	.globl _chr_f16_6E
                                     55 	.globl _chr_f16_6D
                                     56 	.globl _chr_f16_6C
                                     57 	.globl _chr_f16_6B
                                     58 	.globl _chr_f16_6A
                                     59 	.globl _chr_f16_69
                                     60 	.globl _chr_f16_68
                                     61 	.globl _chr_f16_67
                                     62 	.globl _chr_f16_66
                                     63 	.globl _chr_f16_65
                                     64 	.globl _chr_f16_64
                                     65 	.globl _chr_f16_63
                                     66 	.globl _chr_f16_62
                                     67 	.globl _chr_f16_61
                                     68 	.globl _chr_f16_60
                                     69 	.globl _chr_f16_5F
                                     70 	.globl _chr_f16_5E
                                     71 	.globl _chr_f16_5D
                                     72 	.globl _chr_f16_5C
                                     73 	.globl _chr_f16_5B
                                     74 	.globl _chr_f16_5A
                                     75 	.globl _chr_f16_59
                                     76 	.globl _chr_f16_58
                                     77 	.globl _chr_f16_57
                                     78 	.globl _chr_f16_56
                                     79 	.globl _chr_f16_55
                                     80 	.globl _chr_f16_54
                                     81 	.globl _chr_f16_53
                                     82 	.globl _chr_f16_52
                                     83 	.globl _chr_f16_51
                                     84 	.globl _chr_f16_50
                                     85 	.globl _chr_f16_4F
                                     86 	.globl _chr_f16_4E
                                     87 	.globl _chr_f16_4D
                                     88 	.globl _chr_f16_4C
                                     89 	.globl _chr_f16_4B
                                     90 	.globl _chr_f16_4A
                                     91 	.globl _chr_f16_49
                                     92 	.globl _chr_f16_48
                                     93 	.globl _chr_f16_47
                                     94 	.globl _chr_f16_46
                                     95 	.globl _chr_f16_45
                                     96 	.globl _chr_f16_44
                                     97 	.globl _chr_f16_43
                                     98 	.globl _chr_f16_42
                                     99 	.globl _chr_f16_41
                                    100 	.globl _chr_f16_40
                                    101 	.globl _chr_f16_3F
                                    102 	.globl _chr_f16_3E
                                    103 	.globl _chr_f16_3D
                                    104 	.globl _chr_f16_3C
                                    105 	.globl _chr_f16_3B
                                    106 	.globl _chr_f16_3A
                                    107 	.globl _chr_f16_39
                                    108 	.globl _chr_f16_38
                                    109 	.globl _chr_f16_37
                                    110 	.globl _chr_f16_36
                                    111 	.globl _chr_f16_35
                                    112 	.globl _chr_f16_34
                                    113 	.globl _chr_f16_33
                                    114 	.globl _chr_f16_32
                                    115 	.globl _chr_f16_31
                                    116 	.globl _chr_f16_30
                                    117 	.globl _chr_f16_2F
                                    118 	.globl _chr_f16_2E
                                    119 	.globl _chr_f16_2D
                                    120 	.globl _chr_f16_2C
                                    121 	.globl _chr_f16_2B
                                    122 	.globl _chr_f16_2A
                                    123 	.globl _chr_f16_29
                                    124 	.globl _chr_f16_28
                                    125 	.globl _chr_f16_27
                                    126 	.globl _chr_f16_26
                                    127 	.globl _chr_f16_25
                                    128 	.globl _chr_f16_24
                                    129 	.globl _chr_f16_23
                                    130 	.globl _chr_f16_22
                                    131 	.globl _chr_f16_21
                                    132 	.globl _chr_f16_20
                                    133 	.globl _video_config
                                    134 	.globl _vga_set_cursor
                                    135 	.globl _vga_setTextFont
                                    136 	.globl _vga_setTextSize
                                    137 	.globl _vga_setTextColor
                                    138 	.globl _vga_pixel_fast
                                    139 	.globl _vga_clear_screen
                                    140 	.globl _vga_fillRect
                                    141 	.globl _vga_drawChar
                                    142 	.globl _vga_printAt
                                    143 	.globl _vga_drawFastHLine
                                    144 	.globl _vga_drawFastVLine
                                    145 	.globl _vga_drawRect
                                    146 	.globl _vga_fillCircle
                                    147 	.globl _vga_drawLine
                                    148 	.globl _vga_printCenteredX
                                    149 	.globl _vga_FillTriangle
                                    150 	.globl _vga_Print
                                    151 	.globl _vga_Print_int16
                                    152 	.globl _vga_print_float
                                    153 	.globl _vga_print_hex8
                                    154 	.globl _vga_print_int
                                    155 	.globl _vga_print_int_safe
                                    156 	.globl _vga_write
                                    157 	.globl _vga_drawLine_Clipped
                                    158 	.globl _draw_rgb_bars
                                    159 ;--------------------------------------------------------
                                    160 ; special function registers
                                    161 ;--------------------------------------------------------
                                    162 ;--------------------------------------------------------
                                    163 ; ram data
                                    164 ;--------------------------------------------------------
                                    165 	.area _DATA
    00000000                        166 _textcolor::
    00000000                        167 	.ds 2
    00000002                        168 _textbgcolor::
    00000002                        169 	.ds 2
    00000004                        170 _fontsloaded::
    00000004                        171 	.ds 2
    00000006                        172 _addr_row::
    00000006                        173 	.ds 2
    00000008                        174 _addr_col::
    00000008                        175 	.ds 2
    0000000A                        176 _cursor_x::
    0000000A                        177 	.ds 2
    0000000C                        178 _cursor_y::
    0000000C                        179 	.ds 2
    0000000E                        180 _win_xe::
    0000000E                        181 	.ds 2
    00000010                        182 _win_ye::
    00000010                        183 	.ds 2
    00000012                        184 _padX::
    00000012                        185 	.ds 2
    00000014                        186 _textfont::
    00000014                        187 	.ds 1
    00000015                        188 _textsize::
    00000015                        189 	.ds 1
    00000016                        190 _textdatum::
    00000016                        191 	.ds 1
    00000017                        192 _rotation::
    00000017                        193 	.ds 1
                                    194 ;--------------------------------------------------------
                                    195 ; ram data
                                    196 ;--------------------------------------------------------
                                    197 	.area _INITIALIZED
    00000000                        198 __width::
    00000000                        199 	.ds 2
    00000002                        200 __height::
    00000002                        201 	.ds 2
    00000004                        202 __rotation::
    00000004                        203 	.ds 1
    00000005                        204 _textwrap::
    00000005                        205 	.ds 1
                                    206 ;--------------------------------------------------------
                                    207 ; absolute external ram data
                                    208 ;--------------------------------------------------------
                                    209 	.area _DABS (ABS)
                                    210 ;--------------------------------------------------------
                                    211 ; global & static initialisations
                                    212 ;--------------------------------------------------------
                                    213 	.area _HOME
                                    214 	.area _GSINIT
                                    215 	.area _GSFINAL
                                    216 	.area _GSINIT
                                    217 ;--------------------------------------------------------
                                    218 ; Home
                                    219 ;--------------------------------------------------------
                                    220 	.area _HOME
                                    221 	.area _HOME
                                    222 ;--------------------------------------------------------
                                    223 ; code
                                    224 ;--------------------------------------------------------
                                    225 	.area _CODE
                                    226 ;zerkiolino_alu.h:8: static void alu_set_params(int32_t a, int32_t b) {
                                    227 ;	---------------------------------
                                    228 ; Function alu_set_params
                                    229 ; ---------------------------------
    00000000                        230 _alu_set_params:
    00000000 7D               [ 4]  231 	ld	a, l
    00000001 4C               [ 4]  232 	ld	c, h
                                    233 ;zerkiolino_alu.h:10: p[0] = (uint8_t)(a & 0xFF); p[1] = (uint8_t)((a >> 8) & 0xFF);
    00000002 43               [ 4]  234 	ld	b, e
    00000003 21 20 C0         [10]  235 	ld	hl, #0xc020
    00000006 70               [ 7]  236 	ld	(hl), b
    00000007 42               [ 4]  237 	ld	b, d
    00000008 2E 21            [ 7]  238 	ld	l, #0x21
    0000000A 70               [ 7]  239 	ld	(hl), b
                                    240 ;zerkiolino_alu.h:11: p[2] = (uint8_t)((a >> 16) & 0xFF); p[3] = (uint8_t)((a >> 24) & 0xFF);
    0000000B 47               [ 4]  241 	ld	b, a
    0000000C 2E 22            [ 7]  242 	ld	l, #0x22
    0000000E 70               [ 7]  243 	ld	(hl), b
    0000000F 2E 23            [ 7]  244 	ld	l, #0x23
    00000011 71               [ 7]  245 	ld	(hl), c
                                    246 ;zerkiolino_alu.h:12: p[4] = (uint8_t)(b & 0xFF); p[5] = (uint8_t)((b >> 8) & 0xFF);
    00000012 FD 21 02 00      [14]  247 	ld	iy, #2
    00000016 FD 39            [15]  248 	add	iy, sp
    00000018 FD 7E 00         [19]  249 	ld	a, 0 (iy)
    0000001B 2E 24            [ 7]  250 	ld	l, #0x24
    0000001D 77               [ 7]  251 	ld	(hl), a
    0000001E FD 7E 01         [19]  252 	ld	a, 1 (iy)
    00000021 2E 25            [ 7]  253 	ld	l, #0x25
    00000023 77               [ 7]  254 	ld	(hl), a
                                    255 ;zerkiolino_alu.h:13: p[6] = (uint8_t)((b >> 16) & 0xFF); p[7] = (uint8_t)((b >> 24) & 0xFF);
    00000024 FD 7E 02         [19]  256 	ld	a, 2 (iy)
    00000027 2E 26            [ 7]  257 	ld	l, #0x26
    00000029 77               [ 7]  258 	ld	(hl), a
    0000002A FD 7E 03         [19]  259 	ld	a, 3 (iy)
    0000002D 2E 27            [ 7]  260 	ld	l, #0x27
    0000002F 77               [ 7]  261 	ld	(hl), a
                                    262 ;zerkiolino_alu.h:14: }
    00000030 E1               [10]  263 	pop	hl
    00000031 F1               [10]  264 	pop	af
    00000032 F1               [10]  265 	pop	af
    00000033 E9               [ 4]  266 	jp	(hl)
    00000034                        267 _chr_f16_20:
    00000034 00                     268 	.db #0x00	; 0
    00000035 00                     269 	.db #0x00	; 0
    00000036 00                     270 	.db #0x00	; 0
    00000037 00                     271 	.db #0x00	; 0
    00000038 00                     272 	.db #0x00	; 0
    00000039 00                     273 	.db #0x00	; 0
    0000003A 00                     274 	.db #0x00	; 0
    0000003B 00                     275 	.db #0x00	; 0
    0000003C 00                     276 	.db #0x00	; 0
    0000003D 00                     277 	.db #0x00	; 0
    0000003E 00                     278 	.db #0x00	; 0
    0000003F 00                     279 	.db #0x00	; 0
    00000040 00                     280 	.db #0x00	; 0
    00000041 00                     281 	.db #0x00	; 0
    00000042 00                     282 	.db #0x00	; 0
    00000043 00                     283 	.db #0x00	; 0
    00000044                        284 _chr_f16_21:
    00000044 00                     285 	.db #0x00	; 0
    00000045 00                     286 	.db #0x00	; 0
    00000046 00                     287 	.db #0x00	; 0
    00000047 40                     288 	.db #0x40	; 64
    00000048 40                     289 	.db #0x40	; 64
    00000049 40                     290 	.db #0x40	; 64
    0000004A 40                     291 	.db #0x40	; 64
    0000004B 40                     292 	.db #0x40	; 64
    0000004C 40                     293 	.db #0x40	; 64
    0000004D 40                     294 	.db #0x40	; 64
    0000004E 40                     295 	.db #0x40	; 64
    0000004F 00                     296 	.db #0x00	; 0
    00000050 40                     297 	.db #0x40	; 64
    00000051 00                     298 	.db #0x00	; 0
    00000052 00                     299 	.db #0x00	; 0
    00000053 00                     300 	.db #0x00	; 0
    00000054                        301 _chr_f16_22:
    00000054 00                     302 	.db #0x00	; 0
    00000055 00                     303 	.db #0x00	; 0
    00000056 A0                     304 	.db #0xa0	; 160
    00000057 A0                     305 	.db #0xa0	; 160
    00000058 A0                     306 	.db #0xa0	; 160
    00000059 00                     307 	.db #0x00	; 0
    0000005A 00                     308 	.db #0x00	; 0
    0000005B 00                     309 	.db #0x00	; 0
    0000005C 00                     310 	.db #0x00	; 0
    0000005D 00                     311 	.db #0x00	; 0
    0000005E 00                     312 	.db #0x00	; 0
    0000005F 00                     313 	.db #0x00	; 0
    00000060 00                     314 	.db #0x00	; 0
    00000061 00                     315 	.db #0x00	; 0
    00000062 00                     316 	.db #0x00	; 0
    00000063 00                     317 	.db #0x00	; 0
    00000064                        318 _chr_f16_23:
    00000064 00                     319 	.db #0x00	; 0
    00000065 00                     320 	.db #0x00	; 0
    00000066 00                     321 	.db #0x00	; 0
    00000067 24                     322 	.db #0x24	; 36
    00000068 24                     323 	.db #0x24	; 36
    00000069 24                     324 	.db #0x24	; 36
    0000006A FF                     325 	.db #0xff	; 255
    0000006B 24                     326 	.db #0x24	; 36
    0000006C 24                     327 	.db #0x24	; 36
    0000006D FF                     328 	.db #0xff	; 255
    0000006E 24                     329 	.db #0x24	; 36
    0000006F 24                     330 	.db #0x24	; 36
    00000070 24                     331 	.db #0x24	; 36
    00000071 00                     332 	.db #0x00	; 0
    00000072 00                     333 	.db #0x00	; 0
    00000073 00                     334 	.db #0x00	; 0
    00000074                        335 _chr_f16_24:
    00000074 00                     336 	.db #0x00	; 0
    00000075 00                     337 	.db #0x00	; 0
    00000076 00                     338 	.db #0x00	; 0
    00000077 3C                     339 	.db #0x3c	; 60
    00000078 42                     340 	.db #0x42	; 66	'B'
    00000079 40                     341 	.db #0x40	; 64
    0000007A 40                     342 	.db #0x40	; 64
    0000007B 70                     343 	.db #0x70	; 112	'p'
    0000007C 40                     344 	.db #0x40	; 64
    0000007D 70                     345 	.db #0x70	; 112	'p'
    0000007E 40                     346 	.db #0x40	; 64
    0000007F 40                     347 	.db #0x40	; 64
    00000080 FE                     348 	.db #0xfe	; 254
    00000081 00                     349 	.db #0x00	; 0
    00000082 00                     350 	.db #0x00	; 0
    00000083 00                     351 	.db #0x00	; 0
    00000084                        352 _chr_f16_25:
    00000084 00                     353 	.db #0x00	; 0
    00000085 00                     354 	.db #0x00	; 0
    00000086 00                     355 	.db #0x00	; 0
    00000087 61                     356 	.db #0x61	; 97	'a'
    00000088 91                     357 	.db #0x91	; 145
    00000089 92                     358 	.db #0x92	; 146
    0000008A 64                     359 	.db #0x64	; 100	'd'
    0000008B 08                     360 	.db #0x08	; 8
    0000008C 10                     361 	.db #0x10	; 16
    0000008D 26                     362 	.db #0x26	; 38
    0000008E 49                     363 	.db #0x49	; 73	'I'
    0000008F 89                     364 	.db #0x89	; 137
    00000090 86                     365 	.db #0x86	; 134
    00000091 00                     366 	.db #0x00	; 0
    00000092 00                     367 	.db #0x00	; 0
    00000093 00                     368 	.db #0x00	; 0
    00000094                        369 _chr_f16_26:
    00000094 00                     370 	.db #0x00	; 0
    00000095 00                     371 	.db #0x00	; 0
    00000096 00                     372 	.db #0x00	; 0
    00000097 20                     373 	.db #0x20	; 32
    00000098 50                     374 	.db #0x50	; 80	'P'
    00000099 88                     375 	.db #0x88	; 136
    0000009A 88                     376 	.db #0x88	; 136
    0000009B 50                     377 	.db #0x50	; 80	'P'
    0000009C 20                     378 	.db #0x20	; 32
    0000009D 52                     379 	.db #0x52	; 82	'R'
    0000009E 8C                     380 	.db #0x8c	; 140
    0000009F 8C                     381 	.db #0x8c	; 140
    000000A0 73                     382 	.db #0x73	; 115	's'
    000000A1 00                     383 	.db #0x00	; 0
    000000A2 00                     384 	.db #0x00	; 0
    000000A3 00                     385 	.db #0x00	; 0
    000000A4                        386 _chr_f16_27:
    000000A4 00                     387 	.db #0x00	; 0
    000000A5 00                     388 	.db #0x00	; 0
    000000A6 40                     389 	.db #0x40	; 64
    000000A7 40                     390 	.db #0x40	; 64
    000000A8 40                     391 	.db #0x40	; 64
    000000A9 80                     392 	.db #0x80	; 128
    000000AA 00                     393 	.db #0x00	; 0
    000000AB 00                     394 	.db #0x00	; 0
    000000AC 00                     395 	.db #0x00	; 0
    000000AD 00                     396 	.db #0x00	; 0
    000000AE 00                     397 	.db #0x00	; 0
    000000AF 00                     398 	.db #0x00	; 0
    000000B0 00                     399 	.db #0x00	; 0
    000000B1 00                     400 	.db #0x00	; 0
    000000B2 00                     401 	.db #0x00	; 0
    000000B3 00                     402 	.db #0x00	; 0
    000000B4                        403 _chr_f16_28:
    000000B4 00                     404 	.db #0x00	; 0
    000000B5 0C                     405 	.db #0x0c	; 12
    000000B6 10                     406 	.db #0x10	; 16
    000000B7 20                     407 	.db #0x20	; 32
    000000B8 40                     408 	.db #0x40	; 64
    000000B9 40                     409 	.db #0x40	; 64
    000000BA 80                     410 	.db #0x80	; 128
    000000BB 80                     411 	.db #0x80	; 128
    000000BC 80                     412 	.db #0x80	; 128
    000000BD 80                     413 	.db #0x80	; 128
    000000BE 80                     414 	.db #0x80	; 128
    000000BF 40                     415 	.db #0x40	; 64
    000000C0 40                     416 	.db #0x40	; 64
    000000C1 20                     417 	.db #0x20	; 32
    000000C2 10                     418 	.db #0x10	; 16
    000000C3 0C                     419 	.db #0x0c	; 12
    000000C4                        420 _chr_f16_29:
    000000C4 00                     421 	.db #0x00	; 0
    000000C5 C0                     422 	.db #0xc0	; 192
    000000C6 20                     423 	.db #0x20	; 32
    000000C7 10                     424 	.db #0x10	; 16
    000000C8 08                     425 	.db #0x08	; 8
    000000C9 08                     426 	.db #0x08	; 8
    000000CA 04                     427 	.db #0x04	; 4
    000000CB 04                     428 	.db #0x04	; 4
    000000CC 04                     429 	.db #0x04	; 4
    000000CD 04                     430 	.db #0x04	; 4
    000000CE 04                     431 	.db #0x04	; 4
    000000CF 08                     432 	.db #0x08	; 8
    000000D0 08                     433 	.db #0x08	; 8
    000000D1 10                     434 	.db #0x10	; 16
    000000D2 20                     435 	.db #0x20	; 32
    000000D3 C0                     436 	.db #0xc0	; 192
    000000D4                        437 _chr_f16_2A:
    000000D4 00                     438 	.db #0x00	; 0
    000000D5 00                     439 	.db #0x00	; 0
    000000D6 00                     440 	.db #0x00	; 0
    000000D7 00                     441 	.db #0x00	; 0
    000000D8 10                     442 	.db #0x10	; 16
    000000D9 92                     443 	.db #0x92	; 146
    000000DA 54                     444 	.db #0x54	; 84	'T'
    000000DB 38                     445 	.db #0x38	; 56	'8'
    000000DC 54                     446 	.db #0x54	; 84	'T'
    000000DD 92                     447 	.db #0x92	; 146
    000000DE 10                     448 	.db #0x10	; 16
    000000DF 00                     449 	.db #0x00	; 0
    000000E0 00                     450 	.db #0x00	; 0
    000000E1 00                     451 	.db #0x00	; 0
    000000E2 00                     452 	.db #0x00	; 0
    000000E3 00                     453 	.db #0x00	; 0
    000000E4                        454 _chr_f16_2B:
    000000E4 00                     455 	.db #0x00	; 0
    000000E5 00                     456 	.db #0x00	; 0
    000000E6 00                     457 	.db #0x00	; 0
    000000E7 00                     458 	.db #0x00	; 0
    000000E8 00                     459 	.db #0x00	; 0
    000000E9 00                     460 	.db #0x00	; 0
    000000EA 20                     461 	.db #0x20	; 32
    000000EB 20                     462 	.db #0x20	; 32
    000000EC F8                     463 	.db #0xf8	; 248
    000000ED 20                     464 	.db #0x20	; 32
    000000EE 20                     465 	.db #0x20	; 32
    000000EF 00                     466 	.db #0x00	; 0
    000000F0 00                     467 	.db #0x00	; 0
    000000F1 00                     468 	.db #0x00	; 0
    000000F2 00                     469 	.db #0x00	; 0
    000000F3 00                     470 	.db #0x00	; 0
    000000F4                        471 _chr_f16_2C:
    000000F4 00                     472 	.db #0x00	; 0
    000000F5 00                     473 	.db #0x00	; 0
    000000F6 00                     474 	.db #0x00	; 0
    000000F7 00                     475 	.db #0x00	; 0
    000000F8 00                     476 	.db #0x00	; 0
    000000F9 00                     477 	.db #0x00	; 0
    000000FA 00                     478 	.db #0x00	; 0
    000000FB 00                     479 	.db #0x00	; 0
    000000FC 00                     480 	.db #0x00	; 0
    000000FD 00                     481 	.db #0x00	; 0
    000000FE 00                     482 	.db #0x00	; 0
    000000FF C0                     483 	.db #0xc0	; 192
    00000100 C0                     484 	.db #0xc0	; 192
    00000101 40                     485 	.db #0x40	; 64
    00000102 80                     486 	.db #0x80	; 128
    00000103 00                     487 	.db #0x00	; 0
    00000104                        488 _chr_f16_2D:
    00000104 00                     489 	.db #0x00	; 0
    00000105 00                     490 	.db #0x00	; 0
    00000106 00                     491 	.db #0x00	; 0
    00000107 00                     492 	.db #0x00	; 0
    00000108 00                     493 	.db #0x00	; 0
    00000109 00                     494 	.db #0x00	; 0
    0000010A 00                     495 	.db #0x00	; 0
    0000010B 00                     496 	.db #0x00	; 0
    0000010C F8                     497 	.db #0xf8	; 248
    0000010D 00                     498 	.db #0x00	; 0
    0000010E 00                     499 	.db #0x00	; 0
    0000010F 00                     500 	.db #0x00	; 0
    00000110 00                     501 	.db #0x00	; 0
    00000111 00                     502 	.db #0x00	; 0
    00000112 00                     503 	.db #0x00	; 0
    00000113 00                     504 	.db #0x00	; 0
    00000114                        505 _chr_f16_2E:
    00000114 00                     506 	.db #0x00	; 0
    00000115 00                     507 	.db #0x00	; 0
    00000116 00                     508 	.db #0x00	; 0
    00000117 00                     509 	.db #0x00	; 0
    00000118 00                     510 	.db #0x00	; 0
    00000119 00                     511 	.db #0x00	; 0
    0000011A 00                     512 	.db #0x00	; 0
    0000011B 00                     513 	.db #0x00	; 0
    0000011C 00                     514 	.db #0x00	; 0
    0000011D 00                     515 	.db #0x00	; 0
    0000011E 00                     516 	.db #0x00	; 0
    0000011F C0                     517 	.db #0xc0	; 192
    00000120 C0                     518 	.db #0xc0	; 192
    00000121 00                     519 	.db #0x00	; 0
    00000122 00                     520 	.db #0x00	; 0
    00000123 00                     521 	.db #0x00	; 0
    00000124                        522 _chr_f16_2F:
    00000124 00                     523 	.db #0x00	; 0
    00000125 00                     524 	.db #0x00	; 0
    00000126 04                     525 	.db #0x04	; 4
    00000127 04                     526 	.db #0x04	; 4
    00000128 08                     527 	.db #0x08	; 8
    00000129 08                     528 	.db #0x08	; 8
    0000012A 10                     529 	.db #0x10	; 16
    0000012B 10                     530 	.db #0x10	; 16
    0000012C 20                     531 	.db #0x20	; 32
    0000012D 20                     532 	.db #0x20	; 32
    0000012E 40                     533 	.db #0x40	; 64
    0000012F 40                     534 	.db #0x40	; 64
    00000130 80                     535 	.db #0x80	; 128
    00000131 80                     536 	.db #0x80	; 128
    00000132 00                     537 	.db #0x00	; 0
    00000133 00                     538 	.db #0x00	; 0
    00000134                        539 _chr_f16_30:
    00000134 00                     540 	.db #0x00	; 0
    00000135 00                     541 	.db #0x00	; 0
    00000136 00                     542 	.db #0x00	; 0
    00000137 38                     543 	.db #0x38	; 56	'8'
    00000138 44                     544 	.db #0x44	; 68	'D'
    00000139 44                     545 	.db #0x44	; 68	'D'
    0000013A 82                     546 	.db #0x82	; 130
    0000013B 82                     547 	.db #0x82	; 130
    0000013C 82                     548 	.db #0x82	; 130
    0000013D 82                     549 	.db #0x82	; 130
    0000013E 44                     550 	.db #0x44	; 68	'D'
    0000013F 44                     551 	.db #0x44	; 68	'D'
    00000140 38                     552 	.db #0x38	; 56	'8'
    00000141 00                     553 	.db #0x00	; 0
    00000142 00                     554 	.db #0x00	; 0
    00000143 00                     555 	.db #0x00	; 0
    00000144                        556 _chr_f16_31:
    00000144 00                     557 	.db #0x00	; 0
    00000145 00                     558 	.db #0x00	; 0
    00000146 00                     559 	.db #0x00	; 0
    00000147 10                     560 	.db #0x10	; 16
    00000148 30                     561 	.db #0x30	; 48	'0'
    00000149 50                     562 	.db #0x50	; 80	'P'
    0000014A 10                     563 	.db #0x10	; 16
    0000014B 10                     564 	.db #0x10	; 16
    0000014C 10                     565 	.db #0x10	; 16
    0000014D 10                     566 	.db #0x10	; 16
    0000014E 10                     567 	.db #0x10	; 16
    0000014F 10                     568 	.db #0x10	; 16
    00000150 7C                     569 	.db #0x7c	; 124
    00000151 00                     570 	.db #0x00	; 0
    00000152 00                     571 	.db #0x00	; 0
    00000153 00                     572 	.db #0x00	; 0
    00000154                        573 _chr_f16_32:
    00000154 00                     574 	.db #0x00	; 0
    00000155 00                     575 	.db #0x00	; 0
    00000156 00                     576 	.db #0x00	; 0
    00000157 38                     577 	.db #0x38	; 56	'8'
    00000158 44                     578 	.db #0x44	; 68	'D'
    00000159 82                     579 	.db #0x82	; 130
    0000015A 02                     580 	.db #0x02	; 2
    0000015B 04                     581 	.db #0x04	; 4
    0000015C 18                     582 	.db #0x18	; 24
    0000015D 20                     583 	.db #0x20	; 32
    0000015E 40                     584 	.db #0x40	; 64
    0000015F 80                     585 	.db #0x80	; 128
    00000160 FE                     586 	.db #0xfe	; 254
    00000161 00                     587 	.db #0x00	; 0
    00000162 00                     588 	.db #0x00	; 0
    00000163 00                     589 	.db #0x00	; 0
    00000164                        590 _chr_f16_33:
    00000164 00                     591 	.db #0x00	; 0
    00000165 00                     592 	.db #0x00	; 0
    00000166 00                     593 	.db #0x00	; 0
    00000167 78                     594 	.db #0x78	; 120	'x'
    00000168 84                     595 	.db #0x84	; 132
    00000169 02                     596 	.db #0x02	; 2
    0000016A 04                     597 	.db #0x04	; 4
    0000016B 38                     598 	.db #0x38	; 56	'8'
    0000016C 04                     599 	.db #0x04	; 4
    0000016D 02                     600 	.db #0x02	; 2
    0000016E 02                     601 	.db #0x02	; 2
    0000016F 84                     602 	.db #0x84	; 132
    00000170 78                     603 	.db #0x78	; 120	'x'
    00000171 00                     604 	.db #0x00	; 0
    00000172 00                     605 	.db #0x00	; 0
    00000173 00                     606 	.db #0x00	; 0
    00000174                        607 _chr_f16_34:
    00000174 00                     608 	.db #0x00	; 0
    00000175 00                     609 	.db #0x00	; 0
    00000176 00                     610 	.db #0x00	; 0
    00000177 04                     611 	.db #0x04	; 4
    00000178 0C                     612 	.db #0x0c	; 12
    00000179 14                     613 	.db #0x14	; 20
    0000017A 24                     614 	.db #0x24	; 36
    0000017B 44                     615 	.db #0x44	; 68	'D'
    0000017C 84                     616 	.db #0x84	; 132
    0000017D FE                     617 	.db #0xfe	; 254
    0000017E 04                     618 	.db #0x04	; 4
    0000017F 04                     619 	.db #0x04	; 4
    00000180 04                     620 	.db #0x04	; 4
    00000181 00                     621 	.db #0x00	; 0
    00000182 00                     622 	.db #0x00	; 0
    00000183 00                     623 	.db #0x00	; 0
    00000184                        624 _chr_f16_35:
    00000184 00                     625 	.db #0x00	; 0
    00000185 00                     626 	.db #0x00	; 0
    00000186 00                     627 	.db #0x00	; 0
    00000187 FC                     628 	.db #0xfc	; 252
    00000188 80                     629 	.db #0x80	; 128
    00000189 80                     630 	.db #0x80	; 128
    0000018A 80                     631 	.db #0x80	; 128
    0000018B F8                     632 	.db #0xf8	; 248
    0000018C 04                     633 	.db #0x04	; 4
    0000018D 02                     634 	.db #0x02	; 2
    0000018E 02                     635 	.db #0x02	; 2
    0000018F 84                     636 	.db #0x84	; 132
    00000190 78                     637 	.db #0x78	; 120	'x'
    00000191 00                     638 	.db #0x00	; 0
    00000192 00                     639 	.db #0x00	; 0
    00000193 00                     640 	.db #0x00	; 0
    00000194                        641 _chr_f16_36:
    00000194 00                     642 	.db #0x00	; 0
    00000195 00                     643 	.db #0x00	; 0
    00000196 00                     644 	.db #0x00	; 0
    00000197 3C                     645 	.db #0x3c	; 60
    00000198 40                     646 	.db #0x40	; 64
    00000199 80                     647 	.db #0x80	; 128
    0000019A 80                     648 	.db #0x80	; 128
    0000019B B8                     649 	.db #0xb8	; 184
    0000019C C4                     650 	.db #0xc4	; 196
    0000019D 82                     651 	.db #0x82	; 130
    0000019E 82                     652 	.db #0x82	; 130
    0000019F 44                     653 	.db #0x44	; 68	'D'
    000001A0 38                     654 	.db #0x38	; 56	'8'
    000001A1 00                     655 	.db #0x00	; 0
    000001A2 00                     656 	.db #0x00	; 0
    000001A3 00                     657 	.db #0x00	; 0
    000001A4                        658 _chr_f16_37:
    000001A4 00                     659 	.db #0x00	; 0
    000001A5 00                     660 	.db #0x00	; 0
    000001A6 00                     661 	.db #0x00	; 0
    000001A7 7E                     662 	.db #0x7e	; 126
    000001A8 02                     663 	.db #0x02	; 2
    000001A9 02                     664 	.db #0x02	; 2
    000001AA 04                     665 	.db #0x04	; 4
    000001AB 04                     666 	.db #0x04	; 4
    000001AC 08                     667 	.db #0x08	; 8
    000001AD 08                     668 	.db #0x08	; 8
    000001AE 10                     669 	.db #0x10	; 16
    000001AF 10                     670 	.db #0x10	; 16
    000001B0 10                     671 	.db #0x10	; 16
    000001B1 00                     672 	.db #0x00	; 0
    000001B2 00                     673 	.db #0x00	; 0
    000001B3 00                     674 	.db #0x00	; 0
    000001B4                        675 _chr_f16_38:
    000001B4 00                     676 	.db #0x00	; 0
    000001B5 00                     677 	.db #0x00	; 0
    000001B6 00                     678 	.db #0x00	; 0
    000001B7 38                     679 	.db #0x38	; 56	'8'
    000001B8 44                     680 	.db #0x44	; 68	'D'
    000001B9 82                     681 	.db #0x82	; 130
    000001BA 44                     682 	.db #0x44	; 68	'D'
    000001BB 38                     683 	.db #0x38	; 56	'8'
    000001BC 44                     684 	.db #0x44	; 68	'D'
    000001BD 82                     685 	.db #0x82	; 130
    000001BE 82                     686 	.db #0x82	; 130
    000001BF 44                     687 	.db #0x44	; 68	'D'
    000001C0 38                     688 	.db #0x38	; 56	'8'
    000001C1 00                     689 	.db #0x00	; 0
    000001C2 00                     690 	.db #0x00	; 0
    000001C3 00                     691 	.db #0x00	; 0
    000001C4                        692 _chr_f16_39:
    000001C4 00                     693 	.db #0x00	; 0
    000001C5 00                     694 	.db #0x00	; 0
    000001C6 00                     695 	.db #0x00	; 0
    000001C7 38                     696 	.db #0x38	; 56	'8'
    000001C8 44                     697 	.db #0x44	; 68	'D'
    000001C9 82                     698 	.db #0x82	; 130
    000001CA 82                     699 	.db #0x82	; 130
    000001CB 46                     700 	.db #0x46	; 70	'F'
    000001CC 3A                     701 	.db #0x3a	; 58
    000001CD 02                     702 	.db #0x02	; 2
    000001CE 02                     703 	.db #0x02	; 2
    000001CF 04                     704 	.db #0x04	; 4
    000001D0 78                     705 	.db #0x78	; 120	'x'
    000001D1 00                     706 	.db #0x00	; 0
    000001D2 00                     707 	.db #0x00	; 0
    000001D3 00                     708 	.db #0x00	; 0
    000001D4                        709 _chr_f16_3A:
    000001D4 00                     710 	.db #0x00	; 0
    000001D5 00                     711 	.db #0x00	; 0
    000001D6 00                     712 	.db #0x00	; 0
    000001D7 00                     713 	.db #0x00	; 0
    000001D8 00                     714 	.db #0x00	; 0
    000001D9 00                     715 	.db #0x00	; 0
    000001DA C0                     716 	.db #0xc0	; 192
    000001DB C0                     717 	.db #0xc0	; 192
    000001DC 00                     718 	.db #0x00	; 0
    000001DD C0                     719 	.db #0xc0	; 192
    000001DE C0                     720 	.db #0xc0	; 192
    000001DF 00                     721 	.db #0x00	; 0
    000001E0 00                     722 	.db #0x00	; 0
    000001E1 00                     723 	.db #0x00	; 0
    000001E2 00                     724 	.db #0x00	; 0
    000001E3 00                     725 	.db #0x00	; 0
    000001E4                        726 _chr_f16_3B:
    000001E4 00                     727 	.db #0x00	; 0
    000001E5 00                     728 	.db #0x00	; 0
    000001E6 00                     729 	.db #0x00	; 0
    000001E7 00                     730 	.db #0x00	; 0
    000001E8 00                     731 	.db #0x00	; 0
    000001E9 00                     732 	.db #0x00	; 0
    000001EA C0                     733 	.db #0xc0	; 192
    000001EB C0                     734 	.db #0xc0	; 192
    000001EC 00                     735 	.db #0x00	; 0
    000001ED C0                     736 	.db #0xc0	; 192
    000001EE C0                     737 	.db #0xc0	; 192
    000001EF 40                     738 	.db #0x40	; 64
    000001F0 80                     739 	.db #0x80	; 128
    000001F1 00                     740 	.db #0x00	; 0
    000001F2 00                     741 	.db #0x00	; 0
    000001F3 00                     742 	.db #0x00	; 0
    000001F4                        743 _chr_f16_3C:
    000001F4 00                     744 	.db #0x00	; 0
    000001F5 00                     745 	.db #0x00	; 0
    000001F6 00                     746 	.db #0x00	; 0
    000001F7 00                     747 	.db #0x00	; 0
    000001F8 08                     748 	.db #0x08	; 8
    000001F9 10                     749 	.db #0x10	; 16
    000001FA 20                     750 	.db #0x20	; 32
    000001FB 40                     751 	.db #0x40	; 64
    000001FC 80                     752 	.db #0x80	; 128
    000001FD 40                     753 	.db #0x40	; 64
    000001FE 20                     754 	.db #0x20	; 32
    000001FF 10                     755 	.db #0x10	; 16
    00000200 08                     756 	.db #0x08	; 8
    00000201 00                     757 	.db #0x00	; 0
    00000202 00                     758 	.db #0x00	; 0
    00000203 00                     759 	.db #0x00	; 0
    00000204                        760 _chr_f16_3D:
    00000204 00                     761 	.db #0x00	; 0
    00000205 00                     762 	.db #0x00	; 0
    00000206 00                     763 	.db #0x00	; 0
    00000207 00                     764 	.db #0x00	; 0
    00000208 00                     765 	.db #0x00	; 0
    00000209 00                     766 	.db #0x00	; 0
    0000020A 00                     767 	.db #0x00	; 0
    0000020B F8                     768 	.db #0xf8	; 248
    0000020C 00                     769 	.db #0x00	; 0
    0000020D F8                     770 	.db #0xf8	; 248
    0000020E 00                     771 	.db #0x00	; 0
    0000020F 00                     772 	.db #0x00	; 0
    00000210 00                     773 	.db #0x00	; 0
    00000211 00                     774 	.db #0x00	; 0
    00000212 00                     775 	.db #0x00	; 0
    00000213 00                     776 	.db #0x00	; 0
    00000214                        777 _chr_f16_3E:
    00000214 00                     778 	.db #0x00	; 0
    00000215 00                     779 	.db #0x00	; 0
    00000216 00                     780 	.db #0x00	; 0
    00000217 00                     781 	.db #0x00	; 0
    00000218 80                     782 	.db #0x80	; 128
    00000219 40                     783 	.db #0x40	; 64
    0000021A 20                     784 	.db #0x20	; 32
    0000021B 10                     785 	.db #0x10	; 16
    0000021C 08                     786 	.db #0x08	; 8
    0000021D 10                     787 	.db #0x10	; 16
    0000021E 20                     788 	.db #0x20	; 32
    0000021F 40                     789 	.db #0x40	; 64
    00000220 80                     790 	.db #0x80	; 128
    00000221 00                     791 	.db #0x00	; 0
    00000222 00                     792 	.db #0x00	; 0
    00000223 00                     793 	.db #0x00	; 0
    00000224                        794 _chr_f16_3F:
    00000224 00                     795 	.db #0x00	; 0
    00000225 00                     796 	.db #0x00	; 0
    00000226 00                     797 	.db #0x00	; 0
    00000227 38                     798 	.db #0x38	; 56	'8'
    00000228 44                     799 	.db #0x44	; 68	'D'
    00000229 82                     800 	.db #0x82	; 130
    0000022A 02                     801 	.db #0x02	; 2
    0000022B 04                     802 	.db #0x04	; 4
    0000022C 08                     803 	.db #0x08	; 8
    0000022D 10                     804 	.db #0x10	; 16
    0000022E 10                     805 	.db #0x10	; 16
    0000022F 00                     806 	.db #0x00	; 0
    00000230 10                     807 	.db #0x10	; 16
    00000231 00                     808 	.db #0x00	; 0
    00000232 00                     809 	.db #0x00	; 0
    00000233 00                     810 	.db #0x00	; 0
    00000234                        811 _chr_f16_40:
    00000234 00                     812 	.db #0x00	; 0
    00000235 00                     813 	.db #0x00	; 0
    00000236 00                     814 	.db #0x00	; 0
    00000237 3C                     815 	.db #0x3c	; 60
    00000238 42                     816 	.db #0x42	; 66	'B'
    00000239 99                     817 	.db #0x99	; 153
    0000023A A5                     818 	.db #0xa5	; 165
    0000023B A5                     819 	.db #0xa5	; 165
    0000023C A5                     820 	.db #0xa5	; 165
    0000023D A5                     821 	.db #0xa5	; 165
    0000023E 9E                     822 	.db #0x9e	; 158
    0000023F 40                     823 	.db #0x40	; 64
    00000240 3E                     824 	.db #0x3e	; 62
    00000241 00                     825 	.db #0x00	; 0
    00000242 00                     826 	.db #0x00	; 0
    00000243 00                     827 	.db #0x00	; 0
    00000244                        828 _chr_f16_41:
    00000244 00                     829 	.db #0x00	; 0
    00000245 00                     830 	.db #0x00	; 0
    00000246 00                     831 	.db #0x00	; 0
    00000247 10                     832 	.db #0x10	; 16
    00000248 10                     833 	.db #0x10	; 16
    00000249 28                     834 	.db #0x28	; 40
    0000024A 28                     835 	.db #0x28	; 40
    0000024B 44                     836 	.db #0x44	; 68	'D'
    0000024C 44                     837 	.db #0x44	; 68	'D'
    0000024D 7C                     838 	.db #0x7c	; 124
    0000024E 82                     839 	.db #0x82	; 130
    0000024F 82                     840 	.db #0x82	; 130
    00000250 82                     841 	.db #0x82	; 130
    00000251 00                     842 	.db #0x00	; 0
    00000252 00                     843 	.db #0x00	; 0
    00000253 00                     844 	.db #0x00	; 0
    00000254                        845 _chr_f16_42:
    00000254 00                     846 	.db #0x00	; 0
    00000255 00                     847 	.db #0x00	; 0
    00000256 00                     848 	.db #0x00	; 0
    00000257 F8                     849 	.db #0xf8	; 248
    00000258 84                     850 	.db #0x84	; 132
    00000259 82                     851 	.db #0x82	; 130
    0000025A 84                     852 	.db #0x84	; 132
    0000025B F8                     853 	.db #0xf8	; 248
    0000025C 84                     854 	.db #0x84	; 132
    0000025D 82                     855 	.db #0x82	; 130
    0000025E 82                     856 	.db #0x82	; 130
    0000025F 84                     857 	.db #0x84	; 132
    00000260 F8                     858 	.db #0xf8	; 248
    00000261 00                     859 	.db #0x00	; 0
    00000262 00                     860 	.db #0x00	; 0
    00000263 00                     861 	.db #0x00	; 0
    00000264                        862 _chr_f16_43:
    00000264 00                     863 	.db #0x00	; 0
    00000265 00                     864 	.db #0x00	; 0
    00000266 00                     865 	.db #0x00	; 0
    00000267 3C                     866 	.db #0x3c	; 60
    00000268 42                     867 	.db #0x42	; 66	'B'
    00000269 80                     868 	.db #0x80	; 128
    0000026A 80                     869 	.db #0x80	; 128
    0000026B 80                     870 	.db #0x80	; 128
    0000026C 80                     871 	.db #0x80	; 128
    0000026D 80                     872 	.db #0x80	; 128
    0000026E 80                     873 	.db #0x80	; 128
    0000026F 42                     874 	.db #0x42	; 66	'B'
    00000270 3C                     875 	.db #0x3c	; 60
    00000271 00                     876 	.db #0x00	; 0
    00000272 00                     877 	.db #0x00	; 0
    00000273 00                     878 	.db #0x00	; 0
    00000274                        879 _chr_f16_44:
    00000274 00                     880 	.db #0x00	; 0
    00000275 00                     881 	.db #0x00	; 0
    00000276 00                     882 	.db #0x00	; 0
    00000277 F8                     883 	.db #0xf8	; 248
    00000278 84                     884 	.db #0x84	; 132
    00000279 82                     885 	.db #0x82	; 130
    0000027A 82                     886 	.db #0x82	; 130
    0000027B 82                     887 	.db #0x82	; 130
    0000027C 82                     888 	.db #0x82	; 130
    0000027D 82                     889 	.db #0x82	; 130
    0000027E 82                     890 	.db #0x82	; 130
    0000027F 84                     891 	.db #0x84	; 132
    00000280 F8                     892 	.db #0xf8	; 248
    00000281 00                     893 	.db #0x00	; 0
    00000282 00                     894 	.db #0x00	; 0
    00000283 00                     895 	.db #0x00	; 0
    00000284                        896 _chr_f16_45:
    00000284 00                     897 	.db #0x00	; 0
    00000285 00                     898 	.db #0x00	; 0
    00000286 00                     899 	.db #0x00	; 0
    00000287 FE                     900 	.db #0xfe	; 254
    00000288 80                     901 	.db #0x80	; 128
    00000289 80                     902 	.db #0x80	; 128
    0000028A 80                     903 	.db #0x80	; 128
    0000028B FC                     904 	.db #0xfc	; 252
    0000028C 80                     905 	.db #0x80	; 128
    0000028D 80                     906 	.db #0x80	; 128
    0000028E 80                     907 	.db #0x80	; 128
    0000028F 80                     908 	.db #0x80	; 128
    00000290 FE                     909 	.db #0xfe	; 254
    00000291 00                     910 	.db #0x00	; 0
    00000292 00                     911 	.db #0x00	; 0
    00000293 00                     912 	.db #0x00	; 0
    00000294                        913 _chr_f16_46:
    00000294 00                     914 	.db #0x00	; 0
    00000295 00                     915 	.db #0x00	; 0
    00000296 00                     916 	.db #0x00	; 0
    00000297 FE                     917 	.db #0xfe	; 254
    00000298 80                     918 	.db #0x80	; 128
    00000299 80                     919 	.db #0x80	; 128
    0000029A 80                     920 	.db #0x80	; 128
    0000029B F8                     921 	.db #0xf8	; 248
    0000029C 80                     922 	.db #0x80	; 128
    0000029D 80                     923 	.db #0x80	; 128
    0000029E 80                     924 	.db #0x80	; 128
    0000029F 80                     925 	.db #0x80	; 128
    000002A0 80                     926 	.db #0x80	; 128
    000002A1 00                     927 	.db #0x00	; 0
    000002A2 00                     928 	.db #0x00	; 0
    000002A3 00                     929 	.db #0x00	; 0
    000002A4                        930 _chr_f16_47:
    000002A4 00                     931 	.db #0x00	; 0
    000002A5 00                     932 	.db #0x00	; 0
    000002A6 00                     933 	.db #0x00	; 0
    000002A7 3C                     934 	.db #0x3c	; 60
    000002A8 42                     935 	.db #0x42	; 66	'B'
    000002A9 80                     936 	.db #0x80	; 128
    000002AA 80                     937 	.db #0x80	; 128
    000002AB 80                     938 	.db #0x80	; 128
    000002AC 9C                     939 	.db #0x9c	; 156
    000002AD 82                     940 	.db #0x82	; 130
    000002AE 82                     941 	.db #0x82	; 130
    000002AF 42                     942 	.db #0x42	; 66	'B'
    000002B0 3C                     943 	.db #0x3c	; 60
    000002B1 00                     944 	.db #0x00	; 0
    000002B2 00                     945 	.db #0x00	; 0
    000002B3 00                     946 	.db #0x00	; 0
    000002B4                        947 _chr_f16_48:
    000002B4 00                     948 	.db #0x00	; 0
    000002B5 00                     949 	.db #0x00	; 0
    000002B6 00                     950 	.db #0x00	; 0
    000002B7 84                     951 	.db #0x84	; 132
    000002B8 84                     952 	.db #0x84	; 132
    000002B9 84                     953 	.db #0x84	; 132
    000002BA 84                     954 	.db #0x84	; 132
    000002BB FC                     955 	.db #0xfc	; 252
    000002BC 84                     956 	.db #0x84	; 132
    000002BD 84                     957 	.db #0x84	; 132
    000002BE 84                     958 	.db #0x84	; 132
    000002BF 84                     959 	.db #0x84	; 132
    000002C0 84                     960 	.db #0x84	; 132
    000002C1 00                     961 	.db #0x00	; 0
    000002C2 00                     962 	.db #0x00	; 0
    000002C3 00                     963 	.db #0x00	; 0
    000002C4                        964 _chr_f16_49:
    000002C4 00                     965 	.db #0x00	; 0
    000002C5 00                     966 	.db #0x00	; 0
    000002C6 00                     967 	.db #0x00	; 0
    000002C7 E0                     968 	.db #0xe0	; 224
    000002C8 40                     969 	.db #0x40	; 64
    000002C9 40                     970 	.db #0x40	; 64
    000002CA 40                     971 	.db #0x40	; 64
    000002CB 40                     972 	.db #0x40	; 64
    000002CC 40                     973 	.db #0x40	; 64
    000002CD 40                     974 	.db #0x40	; 64
    000002CE 40                     975 	.db #0x40	; 64
    000002CF 40                     976 	.db #0x40	; 64
    000002D0 E0                     977 	.db #0xe0	; 224
    000002D1 00                     978 	.db #0x00	; 0
    000002D2 00                     979 	.db #0x00	; 0
    000002D3 00                     980 	.db #0x00	; 0
    000002D4                        981 _chr_f16_4A:
    000002D4 00                     982 	.db #0x00	; 0
    000002D5 00                     983 	.db #0x00	; 0
    000002D6 00                     984 	.db #0x00	; 0
    000002D7 02                     985 	.db #0x02	; 2
    000002D8 02                     986 	.db #0x02	; 2
    000002D9 02                     987 	.db #0x02	; 2
    000002DA 02                     988 	.db #0x02	; 2
    000002DB 02                     989 	.db #0x02	; 2
    000002DC 02                     990 	.db #0x02	; 2
    000002DD 02                     991 	.db #0x02	; 2
    000002DE 82                     992 	.db #0x82	; 130
    000002DF 44                     993 	.db #0x44	; 68	'D'
    000002E0 38                     994 	.db #0x38	; 56	'8'
    000002E1 00                     995 	.db #0x00	; 0
    000002E2 00                     996 	.db #0x00	; 0
    000002E3 00                     997 	.db #0x00	; 0
    000002E4                        998 _chr_f16_4B:
    000002E4 00                     999 	.db #0x00	; 0
    000002E5 00                    1000 	.db #0x00	; 0
    000002E6 00                    1001 	.db #0x00	; 0
    000002E7 84                    1002 	.db #0x84	; 132
    000002E8 88                    1003 	.db #0x88	; 136
    000002E9 90                    1004 	.db #0x90	; 144
    000002EA A0                    1005 	.db #0xa0	; 160
    000002EB C0                    1006 	.db #0xc0	; 192
    000002EC A0                    1007 	.db #0xa0	; 160
    000002ED 90                    1008 	.db #0x90	; 144
    000002EE 88                    1009 	.db #0x88	; 136
    000002EF 84                    1010 	.db #0x84	; 132
    000002F0 82                    1011 	.db #0x82	; 130
    000002F1 00                    1012 	.db #0x00	; 0
    000002F2 00                    1013 	.db #0x00	; 0
    000002F3 00                    1014 	.db #0x00	; 0
    000002F4                       1015 _chr_f16_4C:
    000002F4 00                    1016 	.db #0x00	; 0
    000002F5 00                    1017 	.db #0x00	; 0
    000002F6 00                    1018 	.db #0x00	; 0
    000002F7 80                    1019 	.db #0x80	; 128
    000002F8 80                    1020 	.db #0x80	; 128
    000002F9 80                    1021 	.db #0x80	; 128
    000002FA 80                    1022 	.db #0x80	; 128
    000002FB 80                    1023 	.db #0x80	; 128
    000002FC 80                    1024 	.db #0x80	; 128
    000002FD 80                    1025 	.db #0x80	; 128
    000002FE 80                    1026 	.db #0x80	; 128
    000002FF 80                    1027 	.db #0x80	; 128
    00000300 FC                    1028 	.db #0xfc	; 252
    00000301 00                    1029 	.db #0x00	; 0
    00000302 00                    1030 	.db #0x00	; 0
    00000303 00                    1031 	.db #0x00	; 0
    00000304                       1032 _chr_f16_4D:
    00000304 00                    1033 	.db #0x00	; 0
    00000305 00                    1034 	.db #0x00	; 0
    00000306 00                    1035 	.db #0x00	; 0
    00000307 00                    1036 	.db #0x00	; 0
    00000308 00                    1037 	.db #0x00	; 0
    00000309 00                    1038 	.db #0x00	; 0
    0000030A C1                    1039 	.db #0xc1	; 193
    0000030B 80                    1040 	.db #0x80	; 128
    0000030C C1                    1041 	.db #0xc1	; 193
    0000030D 80                    1042 	.db #0x80	; 128
    0000030E A2                    1043 	.db #0xa2	; 162
    0000030F 80                    1044 	.db #0x80	; 128
    00000310 A2                    1045 	.db #0xa2	; 162
    00000311 80                    1046 	.db #0x80	; 128
    00000312 94                    1047 	.db #0x94	; 148
    00000313 80                    1048 	.db #0x80	; 128
    00000314 94                    1049 	.db #0x94	; 148
    00000315 80                    1050 	.db #0x80	; 128
    00000316 88                    1051 	.db #0x88	; 136
    00000317 80                    1052 	.db #0x80	; 128
    00000318 88                    1053 	.db #0x88	; 136
    00000319 80                    1054 	.db #0x80	; 128
    0000031A 80                    1055 	.db #0x80	; 128
    0000031B 80                    1056 	.db #0x80	; 128
    0000031C 80                    1057 	.db #0x80	; 128
    0000031D 80                    1058 	.db #0x80	; 128
    0000031E 00                    1059 	.db #0x00	; 0
    0000031F 00                    1060 	.db #0x00	; 0
    00000320 00                    1061 	.db #0x00	; 0
    00000321 00                    1062 	.db #0x00	; 0
    00000322 00                    1063 	.db #0x00	; 0
    00000323 00                    1064 	.db #0x00	; 0
    00000324                       1065 _chr_f16_4E:
    00000324 00                    1066 	.db #0x00	; 0
    00000325 00                    1067 	.db #0x00	; 0
    00000326 00                    1068 	.db #0x00	; 0
    00000327 C2                    1069 	.db #0xc2	; 194
    00000328 C2                    1070 	.db #0xc2	; 194
    00000329 A2                    1071 	.db #0xa2	; 162
    0000032A A2                    1072 	.db #0xa2	; 162
    0000032B 92                    1073 	.db #0x92	; 146
    0000032C 92                    1074 	.db #0x92	; 146
    0000032D 8A                    1075 	.db #0x8a	; 138
    0000032E 8A                    1076 	.db #0x8a	; 138
    0000032F 86                    1077 	.db #0x86	; 134
    00000330 86                    1078 	.db #0x86	; 134
    00000331 00                    1079 	.db #0x00	; 0
    00000332 00                    1080 	.db #0x00	; 0
    00000333 00                    1081 	.db #0x00	; 0
    00000334                       1082 _chr_f16_4F:
    00000334 00                    1083 	.db #0x00	; 0
    00000335 00                    1084 	.db #0x00	; 0
    00000336 00                    1085 	.db #0x00	; 0
    00000337 38                    1086 	.db #0x38	; 56	'8'
    00000338 44                    1087 	.db #0x44	; 68	'D'
    00000339 82                    1088 	.db #0x82	; 130
    0000033A 82                    1089 	.db #0x82	; 130
    0000033B 82                    1090 	.db #0x82	; 130
    0000033C 82                    1091 	.db #0x82	; 130
    0000033D 82                    1092 	.db #0x82	; 130
    0000033E 82                    1093 	.db #0x82	; 130
    0000033F 44                    1094 	.db #0x44	; 68	'D'
    00000340 38                    1095 	.db #0x38	; 56	'8'
    00000341 00                    1096 	.db #0x00	; 0
    00000342 00                    1097 	.db #0x00	; 0
    00000343 00                    1098 	.db #0x00	; 0
    00000344                       1099 _chr_f16_50:
    00000344 00                    1100 	.db #0x00	; 0
    00000345 00                    1101 	.db #0x00	; 0
    00000346 00                    1102 	.db #0x00	; 0
    00000347 F8                    1103 	.db #0xf8	; 248
    00000348 84                    1104 	.db #0x84	; 132
    00000349 82                    1105 	.db #0x82	; 130
    0000034A 82                    1106 	.db #0x82	; 130
    0000034B 82                    1107 	.db #0x82	; 130
    0000034C 84                    1108 	.db #0x84	; 132
    0000034D F8                    1109 	.db #0xf8	; 248
    0000034E 80                    1110 	.db #0x80	; 128
    0000034F 80                    1111 	.db #0x80	; 128
    00000350 80                    1112 	.db #0x80	; 128
    00000351 00                    1113 	.db #0x00	; 0
    00000352 00                    1114 	.db #0x00	; 0
    00000353 00                    1115 	.db #0x00	; 0
    00000354                       1116 _chr_f16_51:
    00000354 00                    1117 	.db #0x00	; 0
    00000355 00                    1118 	.db #0x00	; 0
    00000356 00                    1119 	.db #0x00	; 0
    00000357 38                    1120 	.db #0x38	; 56	'8'
    00000358 44                    1121 	.db #0x44	; 68	'D'
    00000359 82                    1122 	.db #0x82	; 130
    0000035A 82                    1123 	.db #0x82	; 130
    0000035B 82                    1124 	.db #0x82	; 130
    0000035C 82                    1125 	.db #0x82	; 130
    0000035D 82                    1126 	.db #0x82	; 130
    0000035E 82                    1127 	.db #0x82	; 130
    0000035F 44                    1128 	.db #0x44	; 68	'D'
    00000360 38                    1129 	.db #0x38	; 56	'8'
    00000361 08                    1130 	.db #0x08	; 8
    00000362 06                    1131 	.db #0x06	; 6
    00000363 00                    1132 	.db #0x00	; 0
    00000364                       1133 _chr_f16_52:
    00000364 00                    1134 	.db #0x00	; 0
    00000365 00                    1135 	.db #0x00	; 0
    00000366 00                    1136 	.db #0x00	; 0
    00000367 F8                    1137 	.db #0xf8	; 248
    00000368 84                    1138 	.db #0x84	; 132
    00000369 82                    1139 	.db #0x82	; 130
    0000036A 82                    1140 	.db #0x82	; 130
    0000036B 84                    1141 	.db #0x84	; 132
    0000036C F8                    1142 	.db #0xf8	; 248
    0000036D 90                    1143 	.db #0x90	; 144
    0000036E 88                    1144 	.db #0x88	; 136
    0000036F 84                    1145 	.db #0x84	; 132
    00000370 82                    1146 	.db #0x82	; 130
    00000371 00                    1147 	.db #0x00	; 0
    00000372 00                    1148 	.db #0x00	; 0
    00000373 00                    1149 	.db #0x00	; 0
    00000374                       1150 _chr_f16_53:
    00000374 00                    1151 	.db #0x00	; 0
    00000375 00                    1152 	.db #0x00	; 0
    00000376 00                    1153 	.db #0x00	; 0
    00000377 38                    1154 	.db #0x38	; 56	'8'
    00000378 44                    1155 	.db #0x44	; 68	'D'
    00000379 82                    1156 	.db #0x82	; 130
    0000037A 80                    1157 	.db #0x80	; 128
    0000037B 60                    1158 	.db #0x60	; 96
    0000037C 1C                    1159 	.db #0x1c	; 28
    0000037D 02                    1160 	.db #0x02	; 2
    0000037E 82                    1161 	.db #0x82	; 130
    0000037F 44                    1162 	.db #0x44	; 68	'D'
    00000380 38                    1163 	.db #0x38	; 56	'8'
    00000381 00                    1164 	.db #0x00	; 0
    00000382 00                    1165 	.db #0x00	; 0
    00000383 00                    1166 	.db #0x00	; 0
    00000384                       1167 _chr_f16_54:
    00000384 00                    1168 	.db #0x00	; 0
    00000385 00                    1169 	.db #0x00	; 0
    00000386 00                    1170 	.db #0x00	; 0
    00000387 FE                    1171 	.db #0xfe	; 254
    00000388 10                    1172 	.db #0x10	; 16
    00000389 10                    1173 	.db #0x10	; 16
    0000038A 10                    1174 	.db #0x10	; 16
    0000038B 10                    1175 	.db #0x10	; 16
    0000038C 10                    1176 	.db #0x10	; 16
    0000038D 10                    1177 	.db #0x10	; 16
    0000038E 10                    1178 	.db #0x10	; 16
    0000038F 10                    1179 	.db #0x10	; 16
    00000390 10                    1180 	.db #0x10	; 16
    00000391 00                    1181 	.db #0x00	; 0
    00000392 00                    1182 	.db #0x00	; 0
    00000393 00                    1183 	.db #0x00	; 0
    00000394                       1184 _chr_f16_55:
    00000394 00                    1185 	.db #0x00	; 0
    00000395 00                    1186 	.db #0x00	; 0
    00000396 00                    1187 	.db #0x00	; 0
    00000397 82                    1188 	.db #0x82	; 130
    00000398 82                    1189 	.db #0x82	; 130
    00000399 82                    1190 	.db #0x82	; 130
    0000039A 82                    1191 	.db #0x82	; 130
    0000039B 82                    1192 	.db #0x82	; 130
    0000039C 82                    1193 	.db #0x82	; 130
    0000039D 82                    1194 	.db #0x82	; 130
    0000039E 82                    1195 	.db #0x82	; 130
    0000039F 44                    1196 	.db #0x44	; 68	'D'
    000003A0 38                    1197 	.db #0x38	; 56	'8'
    000003A1 00                    1198 	.db #0x00	; 0
    000003A2 00                    1199 	.db #0x00	; 0
    000003A3 00                    1200 	.db #0x00	; 0
    000003A4                       1201 _chr_f16_56:
    000003A4 00                    1202 	.db #0x00	; 0
    000003A5 00                    1203 	.db #0x00	; 0
    000003A6 00                    1204 	.db #0x00	; 0
    000003A7 82                    1205 	.db #0x82	; 130
    000003A8 82                    1206 	.db #0x82	; 130
    000003A9 82                    1207 	.db #0x82	; 130
    000003AA 82                    1208 	.db #0x82	; 130
    000003AB 44                    1209 	.db #0x44	; 68	'D'
    000003AC 44                    1210 	.db #0x44	; 68	'D'
    000003AD 28                    1211 	.db #0x28	; 40
    000003AE 28                    1212 	.db #0x28	; 40
    000003AF 10                    1213 	.db #0x10	; 16
    000003B0 10                    1214 	.db #0x10	; 16
    000003B1 00                    1215 	.db #0x00	; 0
    000003B2 00                    1216 	.db #0x00	; 0
    000003B3 00                    1217 	.db #0x00	; 0
    000003B4                       1218 _chr_f16_57:
    000003B4 00                    1219 	.db #0x00	; 0
    000003B5 00                    1220 	.db #0x00	; 0
    000003B6 00                    1221 	.db #0x00	; 0
    000003B7 00                    1222 	.db #0x00	; 0
    000003B8 00                    1223 	.db #0x00	; 0
    000003B9 00                    1224 	.db #0x00	; 0
    000003BA 80                    1225 	.db #0x80	; 128
    000003BB 80                    1226 	.db #0x80	; 128
    000003BC 80                    1227 	.db #0x80	; 128
    000003BD 80                    1228 	.db #0x80	; 128
    000003BE 80                    1229 	.db #0x80	; 128
    000003BF 80                    1230 	.db #0x80	; 128
    000003C0 88                    1231 	.db #0x88	; 136
    000003C1 80                    1232 	.db #0x80	; 128
    000003C2 88                    1233 	.db #0x88	; 136
    000003C3 80                    1234 	.db #0x80	; 128
    000003C4 49                    1235 	.db #0x49	; 73	'I'
    000003C5 00                    1236 	.db #0x00	; 0
    000003C6 55                    1237 	.db #0x55	; 85	'U'
    000003C7 00                    1238 	.db #0x00	; 0
    000003C8 55                    1239 	.db #0x55	; 85	'U'
    000003C9 00                    1240 	.db #0x00	; 0
    000003CA 22                    1241 	.db #0x22	; 34
    000003CB 00                    1242 	.db #0x00	; 0
    000003CC 22                    1243 	.db #0x22	; 34
    000003CD 00                    1244 	.db #0x00	; 0
    000003CE 00                    1245 	.db #0x00	; 0
    000003CF 00                    1246 	.db #0x00	; 0
    000003D0 00                    1247 	.db #0x00	; 0
    000003D1 00                    1248 	.db #0x00	; 0
    000003D2 00                    1249 	.db #0x00	; 0
    000003D3 00                    1250 	.db #0x00	; 0
    000003D4                       1251 _chr_f16_58:
    000003D4 00                    1252 	.db #0x00	; 0
    000003D5 00                    1253 	.db #0x00	; 0
    000003D6 00                    1254 	.db #0x00	; 0
    000003D7 82                    1255 	.db #0x82	; 130
    000003D8 82                    1256 	.db #0x82	; 130
    000003D9 44                    1257 	.db #0x44	; 68	'D'
    000003DA 28                    1258 	.db #0x28	; 40
    000003DB 10                    1259 	.db #0x10	; 16
    000003DC 10                    1260 	.db #0x10	; 16
    000003DD 28                    1261 	.db #0x28	; 40
    000003DE 44                    1262 	.db #0x44	; 68	'D'
    000003DF 82                    1263 	.db #0x82	; 130
    000003E0 82                    1264 	.db #0x82	; 130
    000003E1 00                    1265 	.db #0x00	; 0
    000003E2 00                    1266 	.db #0x00	; 0
    000003E3 00                    1267 	.db #0x00	; 0
    000003E4                       1268 _chr_f16_59:
    000003E4 00                    1269 	.db #0x00	; 0
    000003E5 00                    1270 	.db #0x00	; 0
    000003E6 00                    1271 	.db #0x00	; 0
    000003E7 82                    1272 	.db #0x82	; 130
    000003E8 82                    1273 	.db #0x82	; 130
    000003E9 82                    1274 	.db #0x82	; 130
    000003EA 44                    1275 	.db #0x44	; 68	'D'
    000003EB 28                    1276 	.db #0x28	; 40
    000003EC 10                    1277 	.db #0x10	; 16
    000003ED 10                    1278 	.db #0x10	; 16
    000003EE 10                    1279 	.db #0x10	; 16
    000003EF 10                    1280 	.db #0x10	; 16
    000003F0 10                    1281 	.db #0x10	; 16
    000003F1 00                    1282 	.db #0x00	; 0
    000003F2 00                    1283 	.db #0x00	; 0
    000003F3 00                    1284 	.db #0x00	; 0
    000003F4                       1285 _chr_f16_5A:
    000003F4 00                    1286 	.db #0x00	; 0
    000003F5 00                    1287 	.db #0x00	; 0
    000003F6 00                    1288 	.db #0x00	; 0
    000003F7 FE                    1289 	.db #0xfe	; 254
    000003F8 02                    1290 	.db #0x02	; 2
    000003F9 04                    1291 	.db #0x04	; 4
    000003FA 08                    1292 	.db #0x08	; 8
    000003FB 10                    1293 	.db #0x10	; 16
    000003FC 10                    1294 	.db #0x10	; 16
    000003FD 20                    1295 	.db #0x20	; 32
    000003FE 40                    1296 	.db #0x40	; 64
    000003FF 80                    1297 	.db #0x80	; 128
    00000400 FE                    1298 	.db #0xfe	; 254
    00000401 00                    1299 	.db #0x00	; 0
    00000402 00                    1300 	.db #0x00	; 0
    00000403 00                    1301 	.db #0x00	; 0
    00000404                       1302 _chr_f16_5B:
    00000404 00                    1303 	.db #0x00	; 0
    00000405 00                    1304 	.db #0x00	; 0
    00000406 E0                    1305 	.db #0xe0	; 224
    00000407 80                    1306 	.db #0x80	; 128
    00000408 80                    1307 	.db #0x80	; 128
    00000409 80                    1308 	.db #0x80	; 128
    0000040A 80                    1309 	.db #0x80	; 128
    0000040B 80                    1310 	.db #0x80	; 128
    0000040C 80                    1311 	.db #0x80	; 128
    0000040D 80                    1312 	.db #0x80	; 128
    0000040E 80                    1313 	.db #0x80	; 128
    0000040F 80                    1314 	.db #0x80	; 128
    00000410 80                    1315 	.db #0x80	; 128
    00000411 E0                    1316 	.db #0xe0	; 224
    00000412 00                    1317 	.db #0x00	; 0
    00000413 00                    1318 	.db #0x00	; 0
    00000414                       1319 _chr_f16_5C:
    00000414 00                    1320 	.db #0x00	; 0
    00000415 00                    1321 	.db #0x00	; 0
    00000416 04                    1322 	.db #0x04	; 4
    00000417 04                    1323 	.db #0x04	; 4
    00000418 08                    1324 	.db #0x08	; 8
    00000419 08                    1325 	.db #0x08	; 8
    0000041A 10                    1326 	.db #0x10	; 16
    0000041B 10                    1327 	.db #0x10	; 16
    0000041C 20                    1328 	.db #0x20	; 32
    0000041D 20                    1329 	.db #0x20	; 32
    0000041E 40                    1330 	.db #0x40	; 64
    0000041F 40                    1331 	.db #0x40	; 64
    00000420 80                    1332 	.db #0x80	; 128
    00000421 80                    1333 	.db #0x80	; 128
    00000422 00                    1334 	.db #0x00	; 0
    00000423 00                    1335 	.db #0x00	; 0
    00000424                       1336 _chr_f16_5D:
    00000424 00                    1337 	.db #0x00	; 0
    00000425 00                    1338 	.db #0x00	; 0
    00000426 E0                    1339 	.db #0xe0	; 224
    00000427 20                    1340 	.db #0x20	; 32
    00000428 20                    1341 	.db #0x20	; 32
    00000429 20                    1342 	.db #0x20	; 32
    0000042A 20                    1343 	.db #0x20	; 32
    0000042B 20                    1344 	.db #0x20	; 32
    0000042C 20                    1345 	.db #0x20	; 32
    0000042D 20                    1346 	.db #0x20	; 32
    0000042E 20                    1347 	.db #0x20	; 32
    0000042F 20                    1348 	.db #0x20	; 32
    00000430 20                    1349 	.db #0x20	; 32
    00000431 E0                    1350 	.db #0xe0	; 224
    00000432 00                    1351 	.db #0x00	; 0
    00000433 00                    1352 	.db #0x00	; 0
    00000434                       1353 _chr_f16_5E:
    00000434 00                    1354 	.db #0x00	; 0
    00000435 10                    1355 	.db #0x10	; 16
    00000436 28                    1356 	.db #0x28	; 40
    00000437 44                    1357 	.db #0x44	; 68	'D'
    00000438 00                    1358 	.db #0x00	; 0
    00000439 00                    1359 	.db #0x00	; 0
    0000043A 00                    1360 	.db #0x00	; 0
    0000043B 00                    1361 	.db #0x00	; 0
    0000043C 00                    1362 	.db #0x00	; 0
    0000043D 00                    1363 	.db #0x00	; 0
    0000043E 00                    1364 	.db #0x00	; 0
    0000043F 00                    1365 	.db #0x00	; 0
    00000440 00                    1366 	.db #0x00	; 0
    00000441 00                    1367 	.db #0x00	; 0
    00000442 00                    1368 	.db #0x00	; 0
    00000443 00                    1369 	.db #0x00	; 0
    00000444 00                    1370 	.db 0x00
    00000445 00                    1371 	.db 0x00
    00000446 00                    1372 	.db 0x00
    00000447 00                    1373 	.db 0x00
    00000448 00                    1374 	.db 0x00
    00000449 00                    1375 	.db 0x00
    0000044A 00                    1376 	.db 0x00
    0000044B 00                    1377 	.db 0x00
    0000044C 00                    1378 	.db 0x00
    0000044D 00                    1379 	.db 0x00
    0000044E 00                    1380 	.db 0x00
    0000044F 00                    1381 	.db 0x00
    00000450 00                    1382 	.db 0x00
    00000451 00                    1383 	.db 0x00
    00000452 00                    1384 	.db 0x00
    00000453 00                    1385 	.db 0x00
    00000454                       1386 _chr_f16_5F:
    00000454 00                    1387 	.db #0x00	; 0
    00000455 00                    1388 	.db #0x00	; 0
    00000456 00                    1389 	.db #0x00	; 0
    00000457 00                    1390 	.db #0x00	; 0
    00000458 00                    1391 	.db #0x00	; 0
    00000459 00                    1392 	.db #0x00	; 0
    0000045A 00                    1393 	.db #0x00	; 0
    0000045B 00                    1394 	.db #0x00	; 0
    0000045C 00                    1395 	.db #0x00	; 0
    0000045D 00                    1396 	.db #0x00	; 0
    0000045E 00                    1397 	.db #0x00	; 0
    0000045F 00                    1398 	.db #0x00	; 0
    00000460 00                    1399 	.db #0x00	; 0
    00000461 00                    1400 	.db #0x00	; 0
    00000462 FF                    1401 	.db #0xff	; 255
    00000463 00                    1402 	.db #0x00	; 0
    00000464 00                    1403 	.db 0x00
    00000465 00                    1404 	.db 0x00
    00000466 00                    1405 	.db 0x00
    00000467 00                    1406 	.db 0x00
    00000468 00                    1407 	.db 0x00
    00000469 00                    1408 	.db 0x00
    0000046A 00                    1409 	.db 0x00
    0000046B 00                    1410 	.db 0x00
    0000046C 00                    1411 	.db 0x00
    0000046D 00                    1412 	.db 0x00
    0000046E 00                    1413 	.db 0x00
    0000046F 00                    1414 	.db 0x00
    00000470 00                    1415 	.db 0x00
    00000471 00                    1416 	.db 0x00
    00000472 00                    1417 	.db 0x00
    00000473 00                    1418 	.db 0x00
    00000474                       1419 _chr_f16_60:
    00000474 00                    1420 	.db #0x00	; 0
    00000475 00                    1421 	.db #0x00	; 0
    00000476 00                    1422 	.db #0x00	; 0
    00000477 40                    1423 	.db #0x40	; 64
    00000478 40                    1424 	.db #0x40	; 64
    00000479 40                    1425 	.db #0x40	; 64
    0000047A 20                    1426 	.db #0x20	; 32
    0000047B 00                    1427 	.db #0x00	; 0
    0000047C 00                    1428 	.db #0x00	; 0
    0000047D 00                    1429 	.db #0x00	; 0
    0000047E 00                    1430 	.db #0x00	; 0
    0000047F 00                    1431 	.db #0x00	; 0
    00000480 00                    1432 	.db #0x00	; 0
    00000481 00                    1433 	.db #0x00	; 0
    00000482 00                    1434 	.db #0x00	; 0
    00000483 00                    1435 	.db #0x00	; 0
    00000484                       1436 _chr_f16_61:
    00000484 00                    1437 	.db #0x00	; 0
    00000485 00                    1438 	.db #0x00	; 0
    00000486 00                    1439 	.db #0x00	; 0
    00000487 00                    1440 	.db #0x00	; 0
    00000488 00                    1441 	.db #0x00	; 0
    00000489 00                    1442 	.db #0x00	; 0
    0000048A 70                    1443 	.db #0x70	; 112	'p'
    0000048B 08                    1444 	.db #0x08	; 8
    0000048C 04                    1445 	.db #0x04	; 4
    0000048D 74                    1446 	.db #0x74	; 116	't'
    0000048E 8C                    1447 	.db #0x8c	; 140
    0000048F 8C                    1448 	.db #0x8c	; 140
    00000490 74                    1449 	.db #0x74	; 116	't'
    00000491 00                    1450 	.db #0x00	; 0
    00000492 00                    1451 	.db #0x00	; 0
    00000493 00                    1452 	.db #0x00	; 0
    00000494                       1453 _chr_f16_62:
    00000494 00                    1454 	.db #0x00	; 0
    00000495 00                    1455 	.db #0x00	; 0
    00000496 00                    1456 	.db #0x00	; 0
    00000497 00                    1457 	.db #0x00	; 0
    00000498 80                    1458 	.db #0x80	; 128
    00000499 80                    1459 	.db #0x80	; 128
    0000049A B0                    1460 	.db #0xb0	; 176
    0000049B C8                    1461 	.db #0xc8	; 200
    0000049C 84                    1462 	.db #0x84	; 132
    0000049D 84                    1463 	.db #0x84	; 132
    0000049E 84                    1464 	.db #0x84	; 132
    0000049F C8                    1465 	.db #0xc8	; 200
    000004A0 B0                    1466 	.db #0xb0	; 176
    000004A1 00                    1467 	.db #0x00	; 0
    000004A2 00                    1468 	.db #0x00	; 0
    000004A3 00                    1469 	.db #0x00	; 0
    000004A4                       1470 _chr_f16_63:
    000004A4 00                    1471 	.db #0x00	; 0
    000004A5 00                    1472 	.db #0x00	; 0
    000004A6 00                    1473 	.db #0x00	; 0
    000004A7 00                    1474 	.db #0x00	; 0
    000004A8 00                    1475 	.db #0x00	; 0
    000004A9 00                    1476 	.db #0x00	; 0
    000004AA 38                    1477 	.db #0x38	; 56	'8'
    000004AB 44                    1478 	.db #0x44	; 68	'D'
    000004AC 80                    1479 	.db #0x80	; 128
    000004AD 80                    1480 	.db #0x80	; 128
    000004AE 80                    1481 	.db #0x80	; 128
    000004AF 44                    1482 	.db #0x44	; 68	'D'
    000004B0 38                    1483 	.db #0x38	; 56	'8'
    000004B1 00                    1484 	.db #0x00	; 0
    000004B2 00                    1485 	.db #0x00	; 0
    000004B3 00                    1486 	.db #0x00	; 0
    000004B4                       1487 _chr_f16_64:
    000004B4 00                    1488 	.db #0x00	; 0
    000004B5 00                    1489 	.db #0x00	; 0
    000004B6 00                    1490 	.db #0x00	; 0
    000004B7 00                    1491 	.db #0x00	; 0
    000004B8 04                    1492 	.db #0x04	; 4
    000004B9 04                    1493 	.db #0x04	; 4
    000004BA 34                    1494 	.db #0x34	; 52	'4'
    000004BB 4C                    1495 	.db #0x4c	; 76	'L'
    000004BC 84                    1496 	.db #0x84	; 132
    000004BD 84                    1497 	.db #0x84	; 132
    000004BE 84                    1498 	.db #0x84	; 132
    000004BF 4C                    1499 	.db #0x4c	; 76	'L'
    000004C0 34                    1500 	.db #0x34	; 52	'4'
    000004C1 00                    1501 	.db #0x00	; 0
    000004C2 00                    1502 	.db #0x00	; 0
    000004C3 00                    1503 	.db #0x00	; 0
    000004C4                       1504 _chr_f16_65:
    000004C4 00                    1505 	.db #0x00	; 0
    000004C5 00                    1506 	.db #0x00	; 0
    000004C6 00                    1507 	.db #0x00	; 0
    000004C7 00                    1508 	.db #0x00	; 0
    000004C8 00                    1509 	.db #0x00	; 0
    000004C9 00                    1510 	.db #0x00	; 0
    000004CA 38                    1511 	.db #0x38	; 56	'8'
    000004CB 44                    1512 	.db #0x44	; 68	'D'
    000004CC 84                    1513 	.db #0x84	; 132
    000004CD F8                    1514 	.db #0xf8	; 248
    000004CE 80                    1515 	.db #0x80	; 128
    000004CF 44                    1516 	.db #0x44	; 68	'D'
    000004D0 38                    1517 	.db #0x38	; 56	'8'
    000004D1 00                    1518 	.db #0x00	; 0
    000004D2 00                    1519 	.db #0x00	; 0
    000004D3 00                    1520 	.db #0x00	; 0
    000004D4                       1521 _chr_f16_66:
    000004D4 00                    1522 	.db #0x00	; 0
    000004D5 00                    1523 	.db #0x00	; 0
    000004D6 00                    1524 	.db #0x00	; 0
    000004D7 30                    1525 	.db #0x30	; 48	'0'
    000004D8 48                    1526 	.db #0x48	; 72	'H'
    000004D9 40                    1527 	.db #0x40	; 64
    000004DA 40                    1528 	.db #0x40	; 64
    000004DB 40                    1529 	.db #0x40	; 64
    000004DC E0                    1530 	.db #0xe0	; 224
    000004DD 40                    1531 	.db #0x40	; 64
    000004DE 40                    1532 	.db #0x40	; 64
    000004DF 40                    1533 	.db #0x40	; 64
    000004E0 40                    1534 	.db #0x40	; 64
    000004E1 00                    1535 	.db #0x00	; 0
    000004E2 00                    1536 	.db #0x00	; 0
    000004E3 00                    1537 	.db #0x00	; 0
    000004E4                       1538 _chr_f16_67:
    000004E4 00                    1539 	.db #0x00	; 0
    000004E5 00                    1540 	.db #0x00	; 0
    000004E6 00                    1541 	.db #0x00	; 0
    000004E7 00                    1542 	.db #0x00	; 0
    000004E8 00                    1543 	.db #0x00	; 0
    000004E9 00                    1544 	.db #0x00	; 0
    000004EA 30                    1545 	.db #0x30	; 48	'0'
    000004EB 4C                    1546 	.db #0x4c	; 76	'L'
    000004EC 84                    1547 	.db #0x84	; 132
    000004ED 84                    1548 	.db #0x84	; 132
    000004EE 84                    1549 	.db #0x84	; 132
    000004EF 4C                    1550 	.db #0x4c	; 76	'L'
    000004F0 34                    1551 	.db #0x34	; 52	'4'
    000004F1 04                    1552 	.db #0x04	; 4
    000004F2 08                    1553 	.db #0x08	; 8
    000004F3 70                    1554 	.db #0x70	; 112	'p'
    000004F4                       1555 _chr_f16_68:
    000004F4 00                    1556 	.db #0x00	; 0
    000004F5 00                    1557 	.db #0x00	; 0
    000004F6 00                    1558 	.db #0x00	; 0
    000004F7 80                    1559 	.db #0x80	; 128
    000004F8 80                    1560 	.db #0x80	; 128
    000004F9 80                    1561 	.db #0x80	; 128
    000004FA B0                    1562 	.db #0xb0	; 176
    000004FB C8                    1563 	.db #0xc8	; 200
    000004FC 84                    1564 	.db #0x84	; 132
    000004FD 84                    1565 	.db #0x84	; 132
    000004FE 84                    1566 	.db #0x84	; 132
    000004FF 84                    1567 	.db #0x84	; 132
    00000500 84                    1568 	.db #0x84	; 132
    00000501 00                    1569 	.db #0x00	; 0
    00000502 00                    1570 	.db #0x00	; 0
    00000503 00                    1571 	.db #0x00	; 0
    00000504                       1572 _chr_f16_69:
    00000504 00                    1573 	.db #0x00	; 0
    00000505 00                    1574 	.db #0x00	; 0
    00000506 00                    1575 	.db #0x00	; 0
    00000507 00                    1576 	.db #0x00	; 0
    00000508 40                    1577 	.db #0x40	; 64
    00000509 00                    1578 	.db #0x00	; 0
    0000050A 40                    1579 	.db #0x40	; 64
    0000050B 40                    1580 	.db #0x40	; 64
    0000050C 40                    1581 	.db #0x40	; 64
    0000050D 40                    1582 	.db #0x40	; 64
    0000050E 40                    1583 	.db #0x40	; 64
    0000050F 40                    1584 	.db #0x40	; 64
    00000510 40                    1585 	.db #0x40	; 64
    00000511 00                    1586 	.db #0x00	; 0
    00000512 00                    1587 	.db #0x00	; 0
    00000513 00                    1588 	.db #0x00	; 0
    00000514                       1589 _chr_f16_6A:
    00000514 00                    1590 	.db #0x00	; 0
    00000515 00                    1591 	.db #0x00	; 0
    00000516 00                    1592 	.db #0x00	; 0
    00000517 00                    1593 	.db #0x00	; 0
    00000518 10                    1594 	.db #0x10	; 16
    00000519 00                    1595 	.db #0x00	; 0
    0000051A 30                    1596 	.db #0x30	; 48	'0'
    0000051B 10                    1597 	.db #0x10	; 16
    0000051C 10                    1598 	.db #0x10	; 16
    0000051D 10                    1599 	.db #0x10	; 16
    0000051E 10                    1600 	.db #0x10	; 16
    0000051F 10                    1601 	.db #0x10	; 16
    00000520 10                    1602 	.db #0x10	; 16
    00000521 10                    1603 	.db #0x10	; 16
    00000522 90                    1604 	.db #0x90	; 144
    00000523 60                    1605 	.db #0x60	; 96
    00000524                       1606 _chr_f16_6B:
    00000524 00                    1607 	.db #0x00	; 0
    00000525 00                    1608 	.db #0x00	; 0
    00000526 00                    1609 	.db #0x00	; 0
    00000527 80                    1610 	.db #0x80	; 128
    00000528 80                    1611 	.db #0x80	; 128
    00000529 80                    1612 	.db #0x80	; 128
    0000052A 88                    1613 	.db #0x88	; 136
    0000052B 90                    1614 	.db #0x90	; 144
    0000052C A0                    1615 	.db #0xa0	; 160
    0000052D C0                    1616 	.db #0xc0	; 192
    0000052E A0                    1617 	.db #0xa0	; 160
    0000052F 90                    1618 	.db #0x90	; 144
    00000530 88                    1619 	.db #0x88	; 136
    00000531 00                    1620 	.db #0x00	; 0
    00000532 00                    1621 	.db #0x00	; 0
    00000533 00                    1622 	.db #0x00	; 0
    00000534                       1623 _chr_f16_6C:
    00000534 00                    1624 	.db #0x00	; 0
    00000535 00                    1625 	.db #0x00	; 0
    00000536 00                    1626 	.db #0x00	; 0
    00000537 C0                    1627 	.db #0xc0	; 192
    00000538 40                    1628 	.db #0x40	; 64
    00000539 40                    1629 	.db #0x40	; 64
    0000053A 40                    1630 	.db #0x40	; 64
    0000053B 40                    1631 	.db #0x40	; 64
    0000053C 40                    1632 	.db #0x40	; 64
    0000053D 40                    1633 	.db #0x40	; 64
    0000053E 40                    1634 	.db #0x40	; 64
    0000053F 40                    1635 	.db #0x40	; 64
    00000540 40                    1636 	.db #0x40	; 64
    00000541 00                    1637 	.db #0x00	; 0
    00000542 00                    1638 	.db #0x00	; 0
    00000543 00                    1639 	.db #0x00	; 0
    00000544                       1640 _chr_f16_6D:
    00000544 00                    1641 	.db #0x00	; 0
    00000545 00                    1642 	.db #0x00	; 0
    00000546 00                    1643 	.db #0x00	; 0
    00000547 00                    1644 	.db #0x00	; 0
    00000548 00                    1645 	.db #0x00	; 0
    00000549 00                    1646 	.db #0x00	; 0
    0000054A AC                    1647 	.db #0xac	; 172
    0000054B D2                    1648 	.db #0xd2	; 210
    0000054C 92                    1649 	.db #0x92	; 146
    0000054D 92                    1650 	.db #0x92	; 146
    0000054E 92                    1651 	.db #0x92	; 146
    0000054F 92                    1652 	.db #0x92	; 146
    00000550 92                    1653 	.db #0x92	; 146
    00000551 00                    1654 	.db #0x00	; 0
    00000552 00                    1655 	.db #0x00	; 0
    00000553 00                    1656 	.db #0x00	; 0
    00000554                       1657 _chr_f16_6E:
    00000554 00                    1658 	.db #0x00	; 0
    00000555 00                    1659 	.db #0x00	; 0
    00000556 00                    1660 	.db #0x00	; 0
    00000557 00                    1661 	.db #0x00	; 0
    00000558 00                    1662 	.db #0x00	; 0
    00000559 00                    1663 	.db #0x00	; 0
    0000055A B0                    1664 	.db #0xb0	; 176
    0000055B C8                    1665 	.db #0xc8	; 200
    0000055C 84                    1666 	.db #0x84	; 132
    0000055D 84                    1667 	.db #0x84	; 132
    0000055E 84                    1668 	.db #0x84	; 132
    0000055F 84                    1669 	.db #0x84	; 132
    00000560 84                    1670 	.db #0x84	; 132
    00000561 00                    1671 	.db #0x00	; 0
    00000562 00                    1672 	.db #0x00	; 0
    00000563 00                    1673 	.db #0x00	; 0
    00000564                       1674 _chr_f16_6F:
    00000564 00                    1675 	.db #0x00	; 0
    00000565 00                    1676 	.db #0x00	; 0
    00000566 00                    1677 	.db #0x00	; 0
    00000567 00                    1678 	.db #0x00	; 0
    00000568 00                    1679 	.db #0x00	; 0
    00000569 00                    1680 	.db #0x00	; 0
    0000056A 38                    1681 	.db #0x38	; 56	'8'
    0000056B 44                    1682 	.db #0x44	; 68	'D'
    0000056C 82                    1683 	.db #0x82	; 130
    0000056D 82                    1684 	.db #0x82	; 130
    0000056E 82                    1685 	.db #0x82	; 130
    0000056F 44                    1686 	.db #0x44	; 68	'D'
    00000570 38                    1687 	.db #0x38	; 56	'8'
    00000571 00                    1688 	.db #0x00	; 0
    00000572 00                    1689 	.db #0x00	; 0
    00000573 00                    1690 	.db #0x00	; 0
    00000574                       1691 _chr_f16_70:
    00000574 00                    1692 	.db #0x00	; 0
    00000575 00                    1693 	.db #0x00	; 0
    00000576 00                    1694 	.db #0x00	; 0
    00000577 00                    1695 	.db #0x00	; 0
    00000578 00                    1696 	.db #0x00	; 0
    00000579 00                    1697 	.db #0x00	; 0
    0000057A B0                    1698 	.db #0xb0	; 176
    0000057B C8                    1699 	.db #0xc8	; 200
    0000057C 84                    1700 	.db #0x84	; 132
    0000057D 84                    1701 	.db #0x84	; 132
    0000057E 84                    1702 	.db #0x84	; 132
    0000057F C8                    1703 	.db #0xc8	; 200
    00000580 B0                    1704 	.db #0xb0	; 176
    00000581 80                    1705 	.db #0x80	; 128
    00000582 80                    1706 	.db #0x80	; 128
    00000583 80                    1707 	.db #0x80	; 128
    00000584                       1708 _chr_f16_71:
    00000584 00                    1709 	.db #0x00	; 0
    00000585 00                    1710 	.db #0x00	; 0
    00000586 00                    1711 	.db #0x00	; 0
    00000587 00                    1712 	.db #0x00	; 0
    00000588 00                    1713 	.db #0x00	; 0
    00000589 00                    1714 	.db #0x00	; 0
    0000058A 34                    1715 	.db #0x34	; 52	'4'
    0000058B 4C                    1716 	.db #0x4c	; 76	'L'
    0000058C 84                    1717 	.db #0x84	; 132
    0000058D 84                    1718 	.db #0x84	; 132
    0000058E 84                    1719 	.db #0x84	; 132
    0000058F 4C                    1720 	.db #0x4c	; 76	'L'
    00000590 34                    1721 	.db #0x34	; 52	'4'
    00000591 04                    1722 	.db #0x04	; 4
    00000592 04                    1723 	.db #0x04	; 4
    00000593 06                    1724 	.db #0x06	; 6
    00000594                       1725 _chr_f16_72:
    00000594 00                    1726 	.db #0x00	; 0
    00000595 00                    1727 	.db #0x00	; 0
    00000596 00                    1728 	.db #0x00	; 0
    00000597 00                    1729 	.db #0x00	; 0
    00000598 00                    1730 	.db #0x00	; 0
    00000599 00                    1731 	.db #0x00	; 0
    0000059A B0                    1732 	.db #0xb0	; 176
    0000059B C8                    1733 	.db #0xc8	; 200
    0000059C 80                    1734 	.db #0x80	; 128
    0000059D 80                    1735 	.db #0x80	; 128
    0000059E 80                    1736 	.db #0x80	; 128
    0000059F 80                    1737 	.db #0x80	; 128
    000005A0 80                    1738 	.db #0x80	; 128
    000005A1 00                    1739 	.db #0x00	; 0
    000005A2 00                    1740 	.db #0x00	; 0
    000005A3 00                    1741 	.db #0x00	; 0
    000005A4                       1742 _chr_f16_73:
    000005A4 00                    1743 	.db #0x00	; 0
    000005A5 00                    1744 	.db #0x00	; 0
    000005A6 00                    1745 	.db #0x00	; 0
    000005A7 00                    1746 	.db #0x00	; 0
    000005A8 00                    1747 	.db #0x00	; 0
    000005A9 00                    1748 	.db #0x00	; 0
    000005AA 70                    1749 	.db #0x70	; 112	'p'
    000005AB 88                    1750 	.db #0x88	; 136
    000005AC 80                    1751 	.db #0x80	; 128
    000005AD 70                    1752 	.db #0x70	; 112	'p'
    000005AE 08                    1753 	.db #0x08	; 8
    000005AF 88                    1754 	.db #0x88	; 136
    000005B0 70                    1755 	.db #0x70	; 112	'p'
    000005B1 00                    1756 	.db #0x00	; 0
    000005B2 00                    1757 	.db #0x00	; 0
    000005B3 00                    1758 	.db #0x00	; 0
    000005B4                       1759 _chr_f16_74:
    000005B4 00                    1760 	.db #0x00	; 0
    000005B5 00                    1761 	.db #0x00	; 0
    000005B6 00                    1762 	.db #0x00	; 0
    000005B7 00                    1763 	.db #0x00	; 0
    000005B8 40                    1764 	.db #0x40	; 64
    000005B9 40                    1765 	.db #0x40	; 64
    000005BA E0                    1766 	.db #0xe0	; 224
    000005BB 40                    1767 	.db #0x40	; 64
    000005BC 40                    1768 	.db #0x40	; 64
    000005BD 40                    1769 	.db #0x40	; 64
    000005BE 40                    1770 	.db #0x40	; 64
    000005BF 40                    1771 	.db #0x40	; 64
    000005C0 30                    1772 	.db #0x30	; 48	'0'
    000005C1 00                    1773 	.db #0x00	; 0
    000005C2 00                    1774 	.db #0x00	; 0
    000005C3 00                    1775 	.db #0x00	; 0
    000005C4                       1776 _chr_f16_75:
    000005C4 00                    1777 	.db #0x00	; 0
    000005C5 00                    1778 	.db #0x00	; 0
    000005C6 00                    1779 	.db #0x00	; 0
    000005C7 00                    1780 	.db #0x00	; 0
    000005C8 00                    1781 	.db #0x00	; 0
    000005C9 00                    1782 	.db #0x00	; 0
    000005CA 84                    1783 	.db #0x84	; 132
    000005CB 84                    1784 	.db #0x84	; 132
    000005CC 84                    1785 	.db #0x84	; 132
    000005CD 84                    1786 	.db #0x84	; 132
    000005CE 84                    1787 	.db #0x84	; 132
    000005CF 4C                    1788 	.db #0x4c	; 76	'L'
    000005D0 34                    1789 	.db #0x34	; 52	'4'
    000005D1 00                    1790 	.db #0x00	; 0
    000005D2 00                    1791 	.db #0x00	; 0
    000005D3 00                    1792 	.db #0x00	; 0
    000005D4                       1793 _chr_f16_76:
    000005D4 00                    1794 	.db #0x00	; 0
    000005D5 00                    1795 	.db #0x00	; 0
    000005D6 00                    1796 	.db #0x00	; 0
    000005D7 00                    1797 	.db #0x00	; 0
    000005D8 00                    1798 	.db #0x00	; 0
    000005D9 00                    1799 	.db #0x00	; 0
    000005DA 82                    1800 	.db #0x82	; 130
    000005DB 82                    1801 	.db #0x82	; 130
    000005DC 82                    1802 	.db #0x82	; 130
    000005DD 82                    1803 	.db #0x82	; 130
    000005DE 44                    1804 	.db #0x44	; 68	'D'
    000005DF 28                    1805 	.db #0x28	; 40
    000005E0 10                    1806 	.db #0x10	; 16
    000005E1 00                    1807 	.db #0x00	; 0
    000005E2 00                    1808 	.db #0x00	; 0
    000005E3 00                    1809 	.db #0x00	; 0
    000005E4                       1810 _chr_f16_77:
    000005E4 00                    1811 	.db #0x00	; 0
    000005E5 00                    1812 	.db #0x00	; 0
    000005E6 00                    1813 	.db #0x00	; 0
    000005E7 00                    1814 	.db #0x00	; 0
    000005E8 00                    1815 	.db #0x00	; 0
    000005E9 00                    1816 	.db #0x00	; 0
    000005EA 82                    1817 	.db #0x82	; 130
    000005EB 82                    1818 	.db #0x82	; 130
    000005EC 82                    1819 	.db #0x82	; 130
    000005ED 92                    1820 	.db #0x92	; 146
    000005EE 92                    1821 	.db #0x92	; 146
    000005EF AA                    1822 	.db #0xaa	; 170
    000005F0 44                    1823 	.db #0x44	; 68	'D'
    000005F1 00                    1824 	.db #0x00	; 0
    000005F2 00                    1825 	.db #0x00	; 0
    000005F3 00                    1826 	.db #0x00	; 0
    000005F4                       1827 _chr_f16_78:
    000005F4 00                    1828 	.db #0x00	; 0
    000005F5 00                    1829 	.db #0x00	; 0
    000005F6 00                    1830 	.db #0x00	; 0
    000005F7 00                    1831 	.db #0x00	; 0
    000005F8 00                    1832 	.db #0x00	; 0
    000005F9 00                    1833 	.db #0x00	; 0
    000005FA 88                    1834 	.db #0x88	; 136
    000005FB 88                    1835 	.db #0x88	; 136
    000005FC 50                    1836 	.db #0x50	; 80	'P'
    000005FD 20                    1837 	.db #0x20	; 32
    000005FE 50                    1838 	.db #0x50	; 80	'P'
    000005FF 88                    1839 	.db #0x88	; 136
    00000600 88                    1840 	.db #0x88	; 136
    00000601 00                    1841 	.db #0x00	; 0
    00000602 00                    1842 	.db #0x00	; 0
    00000603 00                    1843 	.db #0x00	; 0
    00000604                       1844 _chr_f16_79:
    00000604 00                    1845 	.db #0x00	; 0
    00000605 00                    1846 	.db #0x00	; 0
    00000606 00                    1847 	.db #0x00	; 0
    00000607 00                    1848 	.db #0x00	; 0
    00000608 00                    1849 	.db #0x00	; 0
    00000609 00                    1850 	.db #0x00	; 0
    0000060A 84                    1851 	.db #0x84	; 132
    0000060B 84                    1852 	.db #0x84	; 132
    0000060C 84                    1853 	.db #0x84	; 132
    0000060D 84                    1854 	.db #0x84	; 132
    0000060E 84                    1855 	.db #0x84	; 132
    0000060F 4C                    1856 	.db #0x4c	; 76	'L'
    00000610 34                    1857 	.db #0x34	; 52	'4'
    00000611 04                    1858 	.db #0x04	; 4
    00000612 08                    1859 	.db #0x08	; 8
    00000613 70                    1860 	.db #0x70	; 112	'p'
    00000614                       1861 _chr_f16_7A:
    00000614 00                    1862 	.db #0x00	; 0
    00000615 00                    1863 	.db #0x00	; 0
    00000616 00                    1864 	.db #0x00	; 0
    00000617 00                    1865 	.db #0x00	; 0
    00000618 00                    1866 	.db #0x00	; 0
    00000619 00                    1867 	.db #0x00	; 0
    0000061A FC                    1868 	.db #0xfc	; 252
    0000061B 04                    1869 	.db #0x04	; 4
    0000061C 08                    1870 	.db #0x08	; 8
    0000061D 30                    1871 	.db #0x30	; 48	'0'
    0000061E 40                    1872 	.db #0x40	; 64
    0000061F 80                    1873 	.db #0x80	; 128
    00000620 FC                    1874 	.db #0xfc	; 252
    00000621 00                    1875 	.db #0x00	; 0
    00000622 00                    1876 	.db #0x00	; 0
    00000623 00                    1877 	.db #0x00	; 0
    00000624                       1878 _chr_f16_7B:
    00000624 00                    1879 	.db #0x00	; 0
    00000625 10                    1880 	.db #0x10	; 16
    00000626 20                    1881 	.db #0x20	; 32
    00000627 20                    1882 	.db #0x20	; 32
    00000628 20                    1883 	.db #0x20	; 32
    00000629 20                    1884 	.db #0x20	; 32
    0000062A 20                    1885 	.db #0x20	; 32
    0000062B 20                    1886 	.db #0x20	; 32
    0000062C 40                    1887 	.db #0x40	; 64
    0000062D 20                    1888 	.db #0x20	; 32
    0000062E 20                    1889 	.db #0x20	; 32
    0000062F 20                    1890 	.db #0x20	; 32
    00000630 20                    1891 	.db #0x20	; 32
    00000631 20                    1892 	.db #0x20	; 32
    00000632 20                    1893 	.db #0x20	; 32
    00000633 10                    1894 	.db #0x10	; 16
    00000634                       1895 _chr_f16_7C:
    00000634 00                    1896 	.db #0x00	; 0
    00000635 00                    1897 	.db #0x00	; 0
    00000636 40                    1898 	.db #0x40	; 64
    00000637 40                    1899 	.db #0x40	; 64
    00000638 40                    1900 	.db #0x40	; 64
    00000639 40                    1901 	.db #0x40	; 64
    0000063A 40                    1902 	.db #0x40	; 64
    0000063B 40                    1903 	.db #0x40	; 64
    0000063C 40                    1904 	.db #0x40	; 64
    0000063D 40                    1905 	.db #0x40	; 64
    0000063E 40                    1906 	.db #0x40	; 64
    0000063F 40                    1907 	.db #0x40	; 64
    00000640 40                    1908 	.db #0x40	; 64
    00000641 40                    1909 	.db #0x40	; 64
    00000642 40                    1910 	.db #0x40	; 64
    00000643 00                    1911 	.db #0x00	; 0
    00000644                       1912 _chr_f16_7D:
    00000644 00                    1913 	.db #0x00	; 0
    00000645 40                    1914 	.db #0x40	; 64
    00000646 20                    1915 	.db #0x20	; 32
    00000647 20                    1916 	.db #0x20	; 32
    00000648 20                    1917 	.db #0x20	; 32
    00000649 20                    1918 	.db #0x20	; 32
    0000064A 20                    1919 	.db #0x20	; 32
    0000064B 20                    1920 	.db #0x20	; 32
    0000064C 10                    1921 	.db #0x10	; 16
    0000064D 20                    1922 	.db #0x20	; 32
    0000064E 20                    1923 	.db #0x20	; 32
    0000064F 20                    1924 	.db #0x20	; 32
    00000650 20                    1925 	.db #0x20	; 32
    00000651 20                    1926 	.db #0x20	; 32
    00000652 20                    1927 	.db #0x20	; 32
    00000653 40                    1928 	.db #0x40	; 64
    00000654                       1929 _chr_f16_7E:
    00000654 00                    1930 	.db #0x00	; 0
    00000655 00                    1931 	.db #0x00	; 0
    00000656 00                    1932 	.db #0x00	; 0
    00000657 32                    1933 	.db #0x32	; 50	'2'
    00000658 4C                    1934 	.db #0x4c	; 76	'L'
    00000659 00                    1935 	.db #0x00	; 0
    0000065A 00                    1936 	.db #0x00	; 0
    0000065B 00                    1937 	.db #0x00	; 0
    0000065C 00                    1938 	.db #0x00	; 0
    0000065D 00                    1939 	.db #0x00	; 0
    0000065E 00                    1940 	.db #0x00	; 0
    0000065F 00                    1941 	.db #0x00	; 0
    00000660 00                    1942 	.db #0x00	; 0
    00000661 00                    1943 	.db #0x00	; 0
    00000662 00                    1944 	.db #0x00	; 0
    00000663 00                    1945 	.db #0x00	; 0
    00000664                       1946 _chr_f16_7F:
    00000664 00                    1947 	.db #0x00	; 0
    00000665 00                    1948 	.db #0x00	; 0
    00000666 30                    1949 	.db #0x30	; 48	'0'
    00000667 48                    1950 	.db #0x48	; 72	'H'
    00000668 48                    1951 	.db #0x48	; 72	'H'
    00000669 30                    1952 	.db #0x30	; 48	'0'
    0000066A 00                    1953 	.db #0x00	; 0
    0000066B 00                    1954 	.db #0x00	; 0
    0000066C 00                    1955 	.db #0x00	; 0
    0000066D 00                    1956 	.db #0x00	; 0
    0000066E 00                    1957 	.db #0x00	; 0
    0000066F 00                    1958 	.db #0x00	; 0
    00000670 00                    1959 	.db #0x00	; 0
    00000671 00                    1960 	.db #0x00	; 0
    00000672 00                    1961 	.db #0x00	; 0
    00000673 00                    1962 	.db #0x00	; 0
    00000674                       1963 _widtbl_f16:
    00000674 06                    1964 	.db #0x06	; 6
    00000675 03                    1965 	.db #0x03	; 3
    00000676 04                    1966 	.db #0x04	; 4
    00000677 09                    1967 	.db #0x09	; 9
    00000678 08                    1968 	.db #0x08	; 8
    00000679 09                    1969 	.db #0x09	; 9
    0000067A 09                    1970 	.db #0x09	; 9
    0000067B 03                    1971 	.db #0x03	; 3
    0000067C 07                    1972 	.db #0x07	; 7
    0000067D 07                    1973 	.db #0x07	; 7
    0000067E 08                    1974 	.db #0x08	; 8
    0000067F 06                    1975 	.db #0x06	; 6
    00000680 03                    1976 	.db #0x03	; 3
    00000681 06                    1977 	.db #0x06	; 6
    00000682 05                    1978 	.db #0x05	; 5
    00000683 07                    1979 	.db #0x07	; 7
    00000684 08                    1980 	.db #0x08	; 8
    00000685 08                    1981 	.db #0x08	; 8
    00000686 08                    1982 	.db #0x08	; 8
    00000687 08                    1983 	.db #0x08	; 8
    00000688 08                    1984 	.db #0x08	; 8
    00000689 08                    1985 	.db #0x08	; 8
    0000068A 08                    1986 	.db #0x08	; 8
    0000068B 08                    1987 	.db #0x08	; 8
    0000068C 08                    1988 	.db #0x08	; 8
    0000068D 08                    1989 	.db #0x08	; 8
    0000068E 03                    1990 	.db #0x03	; 3
    0000068F 03                    1991 	.db #0x03	; 3
    00000690 06                    1992 	.db #0x06	; 6
    00000691 06                    1993 	.db #0x06	; 6
    00000692 06                    1994 	.db #0x06	; 6
    00000693 08                    1995 	.db #0x08	; 8
    00000694 09                    1996 	.db #0x09	; 9
    00000695 08                    1997 	.db #0x08	; 8
    00000696 08                    1998 	.db #0x08	; 8
    00000697 08                    1999 	.db #0x08	; 8
    00000698 08                    2000 	.db #0x08	; 8
    00000699 08                    2001 	.db #0x08	; 8
    0000069A 08                    2002 	.db #0x08	; 8
    0000069B 08                    2003 	.db #0x08	; 8
    0000069C 08                    2004 	.db #0x08	; 8
    0000069D 04                    2005 	.db #0x04	; 4
    0000069E 08                    2006 	.db #0x08	; 8
    0000069F 08                    2007 	.db #0x08	; 8
    000006A0 07                    2008 	.db #0x07	; 7
    000006A1 0A                    2009 	.db #0x0a	; 10
    000006A2 08                    2010 	.db #0x08	; 8
    000006A3 08                    2011 	.db #0x08	; 8
    000006A4 08                    2012 	.db #0x08	; 8
    000006A5 08                    2013 	.db #0x08	; 8
    000006A6 08                    2014 	.db #0x08	; 8
    000006A7 08                    2015 	.db #0x08	; 8
    000006A8 08                    2016 	.db #0x08	; 8
    000006A9 08                    2017 	.db #0x08	; 8
    000006AA 08                    2018 	.db #0x08	; 8
    000006AB 0A                    2019 	.db #0x0a	; 10
    000006AC 08                    2020 	.db #0x08	; 8
    000006AD 08                    2021 	.db #0x08	; 8
    000006AE 08                    2022 	.db #0x08	; 8
    000006AF 04                    2023 	.db #0x04	; 4
    000006B0 07                    2024 	.db #0x07	; 7
    000006B1 04                    2025 	.db #0x04	; 4
    000006B2 07                    2026 	.db #0x07	; 7
    000006B3 09                    2027 	.db #0x09	; 9
    000006B4 04                    2028 	.db #0x04	; 4
    000006B5 07                    2029 	.db #0x07	; 7
    000006B6 07                    2030 	.db #0x07	; 7
    000006B7 07                    2031 	.db #0x07	; 7
    000006B8 07                    2032 	.db #0x07	; 7
    000006B9 07                    2033 	.db #0x07	; 7
    000006BA 06                    2034 	.db #0x06	; 6
    000006BB 07                    2035 	.db #0x07	; 7
    000006BC 07                    2036 	.db #0x07	; 7
    000006BD 04                    2037 	.db #0x04	; 4
    000006BE 05                    2038 	.db #0x05	; 5
    000006BF 06                    2039 	.db #0x06	; 6
    000006C0 04                    2040 	.db #0x04	; 4
    000006C1 08                    2041 	.db #0x08	; 8
    000006C2 07                    2042 	.db #0x07	; 7
    000006C3 08                    2043 	.db #0x08	; 8
    000006C4 07                    2044 	.db #0x07	; 7
    000006C5 08                    2045 	.db #0x08	; 8
    000006C6 06                    2046 	.db #0x06	; 6
    000006C7 06                    2047 	.db #0x06	; 6
    000006C8 05                    2048 	.db #0x05	; 5
    000006C9 07                    2049 	.db #0x07	; 7
    000006CA 08                    2050 	.db #0x08	; 8
    000006CB 08                    2051 	.db #0x08	; 8
    000006CC 06                    2052 	.db #0x06	; 6
    000006CD 07                    2053 	.db #0x07	; 7
    000006CE 07                    2054 	.db #0x07	; 7
    000006CF 05                    2055 	.db #0x05	; 5
    000006D0 03                    2056 	.db #0x03	; 3
    000006D1 05                    2057 	.db #0x05	; 5
    000006D2 08                    2058 	.db #0x08	; 8
    000006D3 06                    2059 	.db #0x06	; 6
    000006D4                       2060 _chrtbl_f16:
    000006D4r34r00                 2061 	.dw _chr_f16_20
    000006D6r44r00                 2062 	.dw _chr_f16_21
    000006D8r54r00                 2063 	.dw _chr_f16_22
    000006DAr64r00                 2064 	.dw _chr_f16_23
    000006DCr74r00                 2065 	.dw _chr_f16_24
    000006DEr84r00                 2066 	.dw _chr_f16_25
    000006E0r94r00                 2067 	.dw _chr_f16_26
    000006E2rA4r00                 2068 	.dw _chr_f16_27
    000006E4rB4r00                 2069 	.dw _chr_f16_28
    000006E6rC4r00                 2070 	.dw _chr_f16_29
    000006E8rD4r00                 2071 	.dw _chr_f16_2A
    000006EArE4r00                 2072 	.dw _chr_f16_2B
    000006ECrF4r00                 2073 	.dw _chr_f16_2C
    000006EEr04r01                 2074 	.dw _chr_f16_2D
    000006F0r14r01                 2075 	.dw _chr_f16_2E
    000006F2r24r01                 2076 	.dw _chr_f16_2F
    000006F4r34r01                 2077 	.dw _chr_f16_30
    000006F6r44r01                 2078 	.dw _chr_f16_31
    000006F8r54r01                 2079 	.dw _chr_f16_32
    000006FAr64r01                 2080 	.dw _chr_f16_33
    000006FCr74r01                 2081 	.dw _chr_f16_34
    000006FEr84r01                 2082 	.dw _chr_f16_35
    00000700r94r01                 2083 	.dw _chr_f16_36
    00000702rA4r01                 2084 	.dw _chr_f16_37
    00000704rB4r01                 2085 	.dw _chr_f16_38
    00000706rC4r01                 2086 	.dw _chr_f16_39
    00000708rD4r01                 2087 	.dw _chr_f16_3A
    0000070ArE4r01                 2088 	.dw _chr_f16_3B
    0000070CrF4r01                 2089 	.dw _chr_f16_3C
    0000070Er04r02                 2090 	.dw _chr_f16_3D
    00000710r14r02                 2091 	.dw _chr_f16_3E
    00000712r24r02                 2092 	.dw _chr_f16_3F
    00000714r34r02                 2093 	.dw _chr_f16_40
    00000716r44r02                 2094 	.dw _chr_f16_41
    00000718r54r02                 2095 	.dw _chr_f16_42
    0000071Ar64r02                 2096 	.dw _chr_f16_43
    0000071Cr74r02                 2097 	.dw _chr_f16_44
    0000071Er84r02                 2098 	.dw _chr_f16_45
    00000720r94r02                 2099 	.dw _chr_f16_46
    00000722rA4r02                 2100 	.dw _chr_f16_47
    00000724rB4r02                 2101 	.dw _chr_f16_48
    00000726rC4r02                 2102 	.dw _chr_f16_49
    00000728rD4r02                 2103 	.dw _chr_f16_4A
    0000072ArE4r02                 2104 	.dw _chr_f16_4B
    0000072CrF4r02                 2105 	.dw _chr_f16_4C
    0000072Er04r03                 2106 	.dw _chr_f16_4D
    00000730r24r03                 2107 	.dw _chr_f16_4E
    00000732r34r03                 2108 	.dw _chr_f16_4F
    00000734r44r03                 2109 	.dw _chr_f16_50
    00000736r54r03                 2110 	.dw _chr_f16_51
    00000738r64r03                 2111 	.dw _chr_f16_52
    0000073Ar74r03                 2112 	.dw _chr_f16_53
    0000073Cr84r03                 2113 	.dw _chr_f16_54
    0000073Er94r03                 2114 	.dw _chr_f16_55
    00000740rA4r03                 2115 	.dw _chr_f16_56
    00000742rB4r03                 2116 	.dw _chr_f16_57
    00000744rD4r03                 2117 	.dw _chr_f16_58
    00000746rE4r03                 2118 	.dw _chr_f16_59
    00000748rF4r03                 2119 	.dw _chr_f16_5A
    0000074Ar04r04                 2120 	.dw _chr_f16_5B
    0000074Cr14r04                 2121 	.dw _chr_f16_5C
    0000074Er24r04                 2122 	.dw _chr_f16_5D
    00000750r34r04                 2123 	.dw _chr_f16_5E
    00000752r54r04                 2124 	.dw _chr_f16_5F
    00000754r74r04                 2125 	.dw _chr_f16_60
    00000756r84r04                 2126 	.dw _chr_f16_61
    00000758r94r04                 2127 	.dw _chr_f16_62
    0000075ArA4r04                 2128 	.dw _chr_f16_63
    0000075CrB4r04                 2129 	.dw _chr_f16_64
    0000075ErC4r04                 2130 	.dw _chr_f16_65
    00000760rD4r04                 2131 	.dw _chr_f16_66
    00000762rE4r04                 2132 	.dw _chr_f16_67
    00000764rF4r04                 2133 	.dw _chr_f16_68
    00000766r04r05                 2134 	.dw _chr_f16_69
    00000768r14r05                 2135 	.dw _chr_f16_6A
    0000076Ar24r05                 2136 	.dw _chr_f16_6B
    0000076Cr34r05                 2137 	.dw _chr_f16_6C
    0000076Er44r05                 2138 	.dw _chr_f16_6D
    00000770r54r05                 2139 	.dw _chr_f16_6E
    00000772r64r05                 2140 	.dw _chr_f16_6F
    00000774r74r05                 2141 	.dw _chr_f16_70
    00000776r84r05                 2142 	.dw _chr_f16_71
    00000778r94r05                 2143 	.dw _chr_f16_72
    0000077ArA4r05                 2144 	.dw _chr_f16_73
    0000077CrB4r05                 2145 	.dw _chr_f16_74
    0000077ErC4r05                 2146 	.dw _chr_f16_75
    00000780rD4r05                 2147 	.dw _chr_f16_76
    00000782rE4r05                 2148 	.dw _chr_f16_77
    00000784rF4r05                 2149 	.dw _chr_f16_78
    00000786r04r06                 2150 	.dw _chr_f16_79
    00000788r14r06                 2151 	.dw _chr_f16_7A
    0000078Ar24r06                 2152 	.dw _chr_f16_7B
    0000078Cr34r06                 2153 	.dw _chr_f16_7C
    0000078Er44r06                 2154 	.dw _chr_f16_7D
    00000790r54r06                 2155 	.dw _chr_f16_7E
    00000792r64r06                 2156 	.dw _chr_f16_7F
                                   2157 ;zerkiolino_alu.h:17: static int32_t alu_get_32(uint8_t offset) {
                                   2158 ;	---------------------------------
                                   2159 ; Function alu_get_32
                                   2160 ; ---------------------------------
    00000794                       2161 _alu_get_32:
    00000794 DD E5            [15] 2162 	push	ix
    00000796 DD 21 00 00      [14] 2163 	ld	ix,#0
    0000079A DD 39            [15] 2164 	add	ix,sp
    0000079C 21 F8 FF         [10] 2165 	ld	hl, #-8
    0000079F 39               [11] 2166 	add	hl, sp
    000007A0 F9               [ 6] 2167 	ld	sp, hl
                                   2168 ;zerkiolino_alu.h:18: volatile uint8_t *p = (uint8_t *)(ALU_BASE + offset);
    000007A1 4F               [ 4] 2169 	ld	c, a
    000007A2 06 00            [ 7] 2170 	ld	b, #0x00
    000007A4 21 20 C0         [10] 2171 	ld	hl, #0xc020
    000007A7 09               [11] 2172 	add	hl, bc
    000007A8 EB               [ 4] 2173 	ex	de, hl
                                   2174 ;zerkiolino_alu.h:19: uint32_t r = (uint32_t)p[0];
    000007A9 1A               [ 7] 2175 	ld	a, (de)
    000007AA DD 77 F8         [19] 2176 	ld	-8 (ix), a
    000007AD AF               [ 4] 2177 	xor	a, a
    000007AE DD 77 F9         [19] 2178 	ld	-7 (ix), a
    000007B1 DD 77 FA         [19] 2179 	ld	-6 (ix), a
    000007B4 DD 77 FB         [19] 2180 	ld	-5 (ix), a
                                   2181 ;zerkiolino_alu.h:20: r |= (uint32_t)p[1] << 8;
    000007B7 6B               [ 4] 2182 	ld	l, e
    000007B8 62               [ 4] 2183 	ld	h, d
    000007B9 23               [ 6] 2184 	inc	hl
    000007BA 4E               [ 7] 2185 	ld	c, (hl)
    000007BB 06 00            [ 7] 2186 	ld	b, #0x00
    000007BD 21 00 00         [10] 2187 	ld	hl, #0x0000
    000007C0 65               [ 4] 2188 	ld	h, l
    000007C1 68               [ 4] 2189 	ld	l, b
    000007C2 41               [ 4] 2190 	ld	b, c
    000007C3 DD 7E F8         [19] 2191 	ld	a, -8 (ix)
    000007C6 DD 77 FC         [19] 2192 	ld	-4 (ix), a
    000007C9 DD 70 FD         [19] 2193 	ld	-3 (ix), b
    000007CC DD 75 FE         [19] 2194 	ld	-2 (ix), l
    000007CF DD 74 FF         [19] 2195 	ld	-1 (ix), h
                                   2196 ;zerkiolino_alu.h:21: r |= (uint32_t)p[2] << 16;
    000007D2 6B               [ 4] 2197 	ld	l, e
    000007D3 62               [ 4] 2198 	ld	h, d
    000007D4 23               [ 6] 2199 	inc	hl
    000007D5 23               [ 6] 2200 	inc	hl
    000007D6 6E               [ 7] 2201 	ld	l, (hl)
    000007D7 26 00            [ 7] 2202 	ld	h, #0x00
    000007D9 DD 4E FC         [19] 2203 	ld	c, -4 (ix)
    000007DC DD 46 FD         [19] 2204 	ld	b, -3 (ix)
    000007DF E5               [11] 2205 	push	hl
    000007E0 FD E1            [14] 2206 	pop	iy
                                   2207 ;zerkiolino_alu.h:22: r |= (uint32_t)p[3] << 24;
    000007E2 21 03 00         [10] 2208 	ld	hl, #3
    000007E5 19               [11] 2209 	add	hl, de
    000007E6 66               [ 7] 2210 	ld	h, (hl)
    000007E7 FD E5            [15] 2211 	push	iy
    000007E9 DD 6E F6         [19] 2212 	ld	l, -10 (ix)
    000007EC FD E1            [14] 2213 	pop	iy
                                   2214 ;zerkiolino_alu.h:23: return (int32_t)r;
    000007EE 59               [ 4] 2215 	ld	e, c
    000007EF 50               [ 4] 2216 	ld	d, b
                                   2217 ;zerkiolino_alu.h:24: }
    000007F0 DD F9            [10] 2218 	ld	sp, ix
    000007F2 DD E1            [14] 2219 	pop	ix
    000007F4 C9               [10] 2220 	ret
                                   2221 ;zerkiolino_alu.h:28: static int32_t alu_add(int32_t a, int32_t b) {
                                   2222 ;	---------------------------------
                                   2223 ; Function alu_add
                                   2224 ; ---------------------------------
    000007F5                       2225 _alu_add:
    000007F5 4D               [ 4] 2226 	ld	c, l
    000007F6 44               [ 4] 2227 	ld	b, h
                                   2228 ;zerkiolino_alu.h:29: alu_set_params(a, b);
    000007F7 FD 21 02 00      [14] 2229 	ld	iy, #2
    000007FB FD 39            [15] 2230 	add	iy, sp
    000007FD FD 6E 02         [19] 2231 	ld	l, 2 (iy)
    00000800 FD 66 03         [19] 2232 	ld	h, 3 (iy)
    00000803 E5               [11] 2233 	push	hl
    00000804 FD 6E 00         [19] 2234 	ld	l, 0 (iy)
    00000807 FD 66 01         [19] 2235 	ld	h, 1 (iy)
    0000080A E5               [11] 2236 	push	hl
    0000080B 69               [ 4] 2237 	ld	l, c
    0000080C 60               [ 4] 2238 	ld	h, b
    0000080D CDr00r00         [17] 2239 	call	_alu_set_params
                                   2240 ;zerkiolino_alu.h:30: *(volatile uint8_t *)(ALU_BASE + 8) = 1;
    00000810 21 28 C0         [10] 2241 	ld	hl, #0xc028
    00000813 36 01            [10] 2242 	ld	(hl), #0x01
                                   2243 ;zerkiolino_alu.h:31: return alu_get_32(0x0A);
    00000815 3E 0A            [ 7] 2244 	ld	a, #0x0a
                                   2245 ;zerkiolino_alu.h:32: }
    00000817 C3r94r07         [10] 2246 	jp	_alu_get_32
                                   2247 ;zerkiolino_alu.h:34: static int32_t alu_sub(int32_t a, int32_t b) {
                                   2248 ;	---------------------------------
                                   2249 ; Function alu_sub
                                   2250 ; ---------------------------------
    0000081A                       2251 _alu_sub:
    0000081A 4D               [ 4] 2252 	ld	c, l
    0000081B 44               [ 4] 2253 	ld	b, h
                                   2254 ;zerkiolino_alu.h:35: alu_set_params(a, b);
    0000081C FD 21 02 00      [14] 2255 	ld	iy, #2
    00000820 FD 39            [15] 2256 	add	iy, sp
    00000822 FD 6E 02         [19] 2257 	ld	l, 2 (iy)
    00000825 FD 66 03         [19] 2258 	ld	h, 3 (iy)
    00000828 E5               [11] 2259 	push	hl
    00000829 FD 6E 00         [19] 2260 	ld	l, 0 (iy)
    0000082C FD 66 01         [19] 2261 	ld	h, 1 (iy)
    0000082F E5               [11] 2262 	push	hl
    00000830 69               [ 4] 2263 	ld	l, c
    00000831 60               [ 4] 2264 	ld	h, b
    00000832 CDr00r00         [17] 2265 	call	_alu_set_params
                                   2266 ;zerkiolino_alu.h:36: *(volatile uint8_t *)(ALU_BASE + 8) = 2;
    00000835 21 28 C0         [10] 2267 	ld	hl, #0xc028
    00000838 36 02            [10] 2268 	ld	(hl), #0x02
                                   2269 ;zerkiolino_alu.h:37: return alu_get_32(0x0A);
    0000083A 3E 0A            [ 7] 2270 	ld	a, #0x0a
                                   2271 ;zerkiolino_alu.h:38: }
    0000083C C3r94r07         [10] 2272 	jp	_alu_get_32
                                   2273 ;zerkiolino_alu.h:40: static int32_t alu_mul_fp(int32_t a, int32_t b) {
                                   2274 ;	---------------------------------
                                   2275 ; Function alu_mul_fp
                                   2276 ; ---------------------------------
    0000083F                       2277 _alu_mul_fp:
    0000083F 4D               [ 4] 2278 	ld	c, l
    00000840 44               [ 4] 2279 	ld	b, h
                                   2280 ;zerkiolino_alu.h:41: alu_set_params(a, b);
    00000841 FD 21 02 00      [14] 2281 	ld	iy, #2
    00000845 FD 39            [15] 2282 	add	iy, sp
    00000847 FD 6E 02         [19] 2283 	ld	l, 2 (iy)
    0000084A FD 66 03         [19] 2284 	ld	h, 3 (iy)
    0000084D E5               [11] 2285 	push	hl
    0000084E FD 6E 00         [19] 2286 	ld	l, 0 (iy)
    00000851 FD 66 01         [19] 2287 	ld	h, 1 (iy)
    00000854 E5               [11] 2288 	push	hl
    00000855 69               [ 4] 2289 	ld	l, c
    00000856 60               [ 4] 2290 	ld	h, b
    00000857 CDr00r00         [17] 2291 	call	_alu_set_params
                                   2292 ;zerkiolino_alu.h:42: *(volatile uint8_t *)(ALU_BASE + 8) = 3;
    0000085A 21 28 C0         [10] 2293 	ld	hl, #0xc028
    0000085D 36 03            [10] 2294 	ld	(hl), #0x03
                                   2295 ;zerkiolino_alu.h:44: return alu_get_32(0x0C);
    0000085F 3E 0C            [ 7] 2296 	ld	a, #0x0c
                                   2297 ;zerkiolino_alu.h:45: }
    00000861 C3r94r07         [10] 2298 	jp	_alu_get_32
                                   2299 ;zerkiolino_alu.h:47: static int32_t alu_div(int32_t a, int32_t b) {
                                   2300 ;	---------------------------------
                                   2301 ; Function alu_div
                                   2302 ; ---------------------------------
    00000864                       2303 _alu_div:
    00000864 4D               [ 4] 2304 	ld	c, l
    00000865 44               [ 4] 2305 	ld	b, h
                                   2306 ;zerkiolino_alu.h:48: if (b == 0) return 0;
    00000866 FD 21 02 00      [14] 2307 	ld	iy, #2
    0000086A FD 39            [15] 2308 	add	iy, sp
    0000086C FD 7E 03         [19] 2309 	ld	a, 3 (iy)
    0000086F FD B6 02         [19] 2310 	or	a, 2 (iy)
    00000872 FD B6 01         [19] 2311 	or	a, 1 (iy)
    00000875 FD B6 00         [19] 2312 	or	a, 0 (iy)
    00000878 20 06            [12] 2313 	jr	NZ, 00102$
    0000087A 11 00 00         [10] 2314 	ld	de, #0x0000
    0000087D 6B               [ 4] 2315 	ld	l, e
    0000087E 63               [ 4] 2316 	ld	h, e
    0000087F C9               [10] 2317 	ret
    00000880                       2318 00102$:
                                   2319 ;zerkiolino_alu.h:49: alu_set_params(a, b);
    00000880 FD 21 02 00      [14] 2320 	ld	iy, #2
    00000884 FD 39            [15] 2321 	add	iy, sp
    00000886 FD 6E 02         [19] 2322 	ld	l, 2 (iy)
    00000889 FD 66 03         [19] 2323 	ld	h, 3 (iy)
    0000088C E5               [11] 2324 	push	hl
    0000088D FD 6E 00         [19] 2325 	ld	l, 0 (iy)
    00000890 FD 66 01         [19] 2326 	ld	h, 1 (iy)
    00000893 E5               [11] 2327 	push	hl
    00000894 69               [ 4] 2328 	ld	l, c
    00000895 60               [ 4] 2329 	ld	h, b
    00000896 CDr00r00         [17] 2330 	call	_alu_set_params
                                   2331 ;zerkiolino_alu.h:50: *(volatile uint8_t *)(ALU_BASE + 8) = 4;
    00000899 21 28 C0         [10] 2332 	ld	hl, #0xc028
    0000089C 36 04            [10] 2333 	ld	(hl), #0x04
                                   2334 ;zerkiolino_alu.h:51: while(*(volatile uint8_t *)(ALU_BASE + 9) & 0x01); // Wait Busy
    0000089E                       2335 00103$:
    0000089E 3A 29 C0         [13] 2336 	ld	a, (#0xc029)
    000008A1 0F               [ 4] 2337 	rrca
    000008A2 38 FA            [12] 2338 	jr	C, 00103$
                                   2339 ;zerkiolino_alu.h:52: return alu_get_32(0x0A);
    000008A4 3E 0A            [ 7] 2340 	ld	a, #0x0a
                                   2341 ;zerkiolino_alu.h:53: }
    000008A6 C3r94r07         [10] 2342 	jp	_alu_get_32
                                   2343 ;zerkiolino_alu.h:55: static int16_t alu_get_mod() {
                                   2344 ;	---------------------------------
                                   2345 ; Function alu_get_mod
                                   2346 ; ---------------------------------
    000008A9                       2347 _alu_get_mod:
                                   2348 ;zerkiolino_alu.h:57: uint16_t r = (uint16_t)p[0]; // Resto mappato su 0x0 e 0x1 in lettura
    000008A9 21 20 C0         [10] 2349 	ld	hl, #0xc020
    000008AC 4E               [ 7] 2350 	ld	c, (hl)
                                   2351 ;zerkiolino_alu.h:58: r |= (uint16_t)p[1] << 8;
    000008AD 21 21 C0         [10] 2352 	ld	hl, #0xc021
    000008B0 56               [ 7] 2353 	ld	d, (hl)
    000008B1 59               [ 4] 2354 	ld	e, c
                                   2355 ;zerkiolino_alu.h:59: return (int16_t)r;
                                   2356 ;zerkiolino_alu.h:60: }
    000008B2 C9               [10] 2357 	ret
                                   2358 ;zerkiolino_alu.h:62: static int32_t alu_shl(int32_t a, uint8_t sh) {
                                   2359 ;	---------------------------------
                                   2360 ; Function alu_shl
                                   2361 ; ---------------------------------
    000008B3                       2362 _alu_shl:
    000008B3 DD E5            [15] 2363 	push	ix
    000008B5 DD 21 00 00      [14] 2364 	ld	ix,#0
    000008B9 DD 39            [15] 2365 	add	ix,sp
                                   2366 ;zerkiolino_alu.h:63: alu_set_params(a, (int32_t)sh);
    000008BB DD 4E 04         [19] 2367 	ld	c, 4 (ix)
    000008BE 06 00            [ 7] 2368 	ld	b, #0x00
    000008C0 FD 21 00 00      [14] 2369 	ld	iy, #0x0000
    000008C4 FD E5            [15] 2370 	push	iy
    000008C6 C5               [11] 2371 	push	bc
    000008C7 CDr00r00         [17] 2372 	call	_alu_set_params
                                   2373 ;zerkiolino_alu.h:64: *(volatile uint8_t *)(ALU_BASE + 8) = 5;
    000008CA 21 28 C0         [10] 2374 	ld	hl, #0xc028
    000008CD 36 05            [10] 2375 	ld	(hl), #0x05
                                   2376 ;zerkiolino_alu.h:65: return alu_get_32(0x0A);
    000008CF 3E 0A            [ 7] 2377 	ld	a, #0x0a
    000008D1 CDr94r07         [17] 2378 	call	_alu_get_32
                                   2379 ;zerkiolino_alu.h:66: }
    000008D4 DD E1            [14] 2380 	pop	ix
    000008D6 C9               [10] 2381 	ret
                                   2382 ;zerkiolino_alu.h:68: static int32_t alu_shr(int32_t a, uint8_t sh) {
                                   2383 ;	---------------------------------
                                   2384 ; Function alu_shr
                                   2385 ; ---------------------------------
    000008D7                       2386 _alu_shr:
    000008D7 DD E5            [15] 2387 	push	ix
    000008D9 DD 21 00 00      [14] 2388 	ld	ix,#0
    000008DD DD 39            [15] 2389 	add	ix,sp
                                   2390 ;zerkiolino_alu.h:69: alu_set_params(a, (int32_t)sh);
    000008DF DD 4E 04         [19] 2391 	ld	c, 4 (ix)
    000008E2 06 00            [ 7] 2392 	ld	b, #0x00
    000008E4 FD 21 00 00      [14] 2393 	ld	iy, #0x0000
    000008E8 FD E5            [15] 2394 	push	iy
    000008EA C5               [11] 2395 	push	bc
    000008EB CDr00r00         [17] 2396 	call	_alu_set_params
                                   2397 ;zerkiolino_alu.h:70: *(volatile uint8_t *)(ALU_BASE + 8) = 6;
    000008EE 21 28 C0         [10] 2398 	ld	hl, #0xc028
    000008F1 36 06            [10] 2399 	ld	(hl), #0x06
                                   2400 ;zerkiolino_alu.h:71: return alu_get_32(0x0A);
    000008F3 3E 0A            [ 7] 2401 	ld	a, #0x0a
    000008F5 CDr94r07         [17] 2402 	call	_alu_get_32
                                   2403 ;zerkiolino_alu.h:72: }
    000008F8 DD E1            [14] 2404 	pop	ix
    000008FA C9               [10] 2405 	ret
                                   2406 ;video.c:22: void swap_int16(int16_t *a, int16_t *b) {
                                   2407 ;	---------------------------------
                                   2408 ; Function swap_int16
                                   2409 ; ---------------------------------
    000008FB                       2410 _swap_int16::
    000008FB DD E5            [15] 2411 	push	ix
    000008FD DD 21 00 00      [14] 2412 	ld	ix,#0
    00000901 DD 39            [15] 2413 	add	ix,sp
    00000903 F5               [11] 2414 	push	af
    00000904 4D               [ 4] 2415 	ld	c, l
    00000905 44               [ 4] 2416 	ld	b, h
                                   2417 ;video.c:23: int16_t temp = *a;
    00000906 0A               [ 7] 2418 	ld	a, (bc)
    00000907 DD 77 FE         [19] 2419 	ld	-2 (ix), a
    0000090A 03               [ 6] 2420 	inc	bc
    0000090B 0A               [ 7] 2421 	ld	a, (bc)
    0000090C DD 77 FF         [19] 2422 	ld	-1 (ix), a
    0000090F 0B               [ 6] 2423 	dec	bc
                                   2424 ;video.c:24: *a = *b;
    00000910 6B               [ 4] 2425 	ld	l, e
    00000911 62               [ 4] 2426 	ld	h, d
    00000912 7E               [ 7] 2427 	ld	a, (hl)
    00000913 23               [ 6] 2428 	inc	hl
    00000914 66               [ 7] 2429 	ld	h, (hl)
    00000915 02               [ 7] 2430 	ld	(bc), a
    00000916 03               [ 6] 2431 	inc	bc
    00000917 7C               [ 4] 2432 	ld	a, h
    00000918 02               [ 7] 2433 	ld	(bc), a
                                   2434 ;video.c:25: *b = temp;
    00000919 DD 7E FE         [19] 2435 	ld	a, -2 (ix)
    0000091C 12               [ 7] 2436 	ld	(de), a
    0000091D 13               [ 6] 2437 	inc	de
    0000091E DD 7E FF         [19] 2438 	ld	a, -1 (ix)
    00000921 12               [ 7] 2439 	ld	(de), a
                                   2440 ;video.c:26: }
    00000922 DD F9            [10] 2441 	ld	sp, ix
    00000924 DD E1            [14] 2442 	pop	ix
    00000926 C9               [10] 2443 	ret
                                   2444 ;video.c:30: void video_config(uint8_t video_on, uint8_t scanline_off) {
                                   2445 ;	---------------------------------
                                   2446 ; Function video_config
                                   2447 ; ---------------------------------
    00000927                       2448 _video_config::
                                   2449 ;video.c:31: uint8_t ctrl = 0;
    00000927 0E 00            [ 7] 2450 	ld	c, #0x00
                                   2451 ;video.c:34: if (video_on)     ctrl |= VIDEO_ENABLE_BIT;   // (1 << 1)
    00000929 B7               [ 4] 2452 	or	a, a
    0000092A 28 02            [12] 2453 	jr	Z, 00102$
    0000092C 0E 02            [ 7] 2454 	ld	c, #0x02
    0000092E                       2455 00102$:
                                   2456 ;video.c:37: if (scanline_off) ctrl |= VIDEO_SCANLINE_OFF; // (1 << 2)
    0000092E 7D               [ 4] 2457 	ld	a, l
    0000092F B7               [ 4] 2458 	or	a, a
    00000930 28 02            [12] 2459 	jr	Z, 00104$
    00000932 CB D1            [ 8] 2460 	set	2, c
    00000934                       2461 00104$:
                                   2462 ;video.c:41: VGA_REG_CTRL = ctrl;
    00000934 21 06 C0         [10] 2463 	ld	hl, #0xc006
    00000937 71               [ 7] 2464 	ld	(hl), c
                                   2465 ;video.c:42: }
    00000938 C9               [10] 2466 	ret
                                   2467 ;video.c:44: void vga_set_cursor(int x, int y) {
                                   2468 ;	---------------------------------
                                   2469 ; Function vga_set_cursor
                                   2470 ; ---------------------------------
    00000939                       2471 _vga_set_cursor::
                                   2472 ;video.c:45: cursor_x = x;
    00000939 22r0Ar00         [16] 2473 	ld	(_cursor_x), hl
                                   2474 ;video.c:46: cursor_y = y;
    0000093C ED 53r0Cr00      [20] 2475 	ld	(_cursor_y), de
                                   2476 ;video.c:47: }
    00000940 C9               [10] 2477 	ret
                                   2478 ;video.c:53: void vga_setTextFont(uint8_t f)
                                   2479 ;	---------------------------------
                                   2480 ; Function vga_setTextFont
                                   2481 ; ---------------------------------
    00000941                       2482 _vga_setTextFont::
                                   2483 ;video.c:55: textfont = (f > 0) ? f : 1; // Don't allow font 0
    00000941 B7               [ 4] 2484 	or	a, a
    00000942 20 02            [12] 2485 	jr	NZ, 00104$
    00000944 3E 01            [ 7] 2486 	ld	a, #0x01
    00000946                       2487 00104$:
    00000946 32r14r00         [13] 2488 	ld	(_textfont+0), a
                                   2489 ;video.c:56: }
    00000949 C9               [10] 2490 	ret
                                   2491 ;video.c:62: void vga_setTextSize(uint8_t s)
                                   2492 ;	---------------------------------
                                   2493 ; Function vga_setTextSize
                                   2494 ; ---------------------------------
    0000094A                       2495 _vga_setTextSize::
                                   2496 ;video.c:64: if (s>7) s = 7; // Limit the maximum size multiplier so byte variables can be used for rendering
    0000094A FE 08            [ 7] 2497 	cp	a, #0x08
    0000094C 38 02            [12] 2498 	jr	C, 00102$
    0000094E 3E 07            [ 7] 2499 	ld	a, #0x07
    00000950                       2500 00102$:
                                   2501 ;video.c:65: textsize = (s > 0) ? s : 1; // Don't allow font size 0
    00000950 B7               [ 4] 2502 	or	a, a
    00000951 20 02            [12] 2503 	jr	NZ, 00106$
    00000953 3E 01            [ 7] 2504 	ld	a, #0x01
    00000955                       2505 00106$:
    00000955 32r15r00         [13] 2506 	ld	(_textsize+0), a
                                   2507 ;video.c:66: }
    00000958 C9               [10] 2508 	ret
                                   2509 ;video.c:72: void vga_setTextColor(uint16_t c, uint16_t b)
                                   2510 ;	---------------------------------
                                   2511 ; Function vga_setTextColor
                                   2512 ; ---------------------------------
    00000959                       2513 _vga_setTextColor::
    00000959 22r00r00         [16] 2514 	ld	(_textcolor), hl
    0000095C ED 53r02r00      [20] 2515 	ld	(_textbgcolor), de
                                   2516 ;video.c:75: textbgcolor = b;
                                   2517 ;video.c:76: }
    00000960 C9               [10] 2518 	ret
                                   2519 ;video.c:79: void vga_pixel_fast(uint16_t x, uint16_t y, uint16_t color) {
                                   2520 ;	---------------------------------
                                   2521 ; Function vga_pixel_fast
                                   2522 ; ---------------------------------
    00000961                       2523 _vga_pixel_fast::
    00000961 DD E5            [15] 2524 	push	ix
    00000963 DD 21 00 00      [14] 2525 	ld	ix,#0
    00000967 DD 39            [15] 2526 	add	ix,sp
    00000969 E5               [11] 2527 	push	hl
                                   2528 ;video.c:82: while((VGA_REG_STAT & 0x01) && --timeout); 
    0000096A 01 10 27         [10] 2529 	ld	bc, #0x2710
    0000096D                       2530 00102$:
    0000096D 3A 05 C0         [13] 2531 	ld	a, (#0xc005)
    00000970 0F               [ 4] 2532 	rrca
    00000971 30 05            [12] 2533 	jr	NC, 00104$
    00000973 0B               [ 6] 2534 	dec	bc
    00000974 78               [ 4] 2535 	ld	a, b
    00000975 B1               [ 4] 2536 	or	a, c
    00000976 20 F5            [12] 2537 	jr	NZ, 00102$
    00000978                       2538 00104$:
                                   2539 ;video.c:84: VIDEO_REG_X_L = (uint8_t)(x & 0xFF);
    00000978 DD 7E FE         [19] 2540 	ld	a, -2 (ix)
    0000097B 21 00 C0         [10] 2541 	ld	hl, #0xc000
    0000097E 77               [ 7] 2542 	ld	(hl), a
                                   2543 ;video.c:85: VIDEO_REG_X_H = (uint8_t)((x >> 8) & 0x03);
    0000097F DD 7E FF         [19] 2544 	ld	a, -1 (ix)
    00000982 E6 03            [ 7] 2545 	and	a, #0x03
    00000984 2E 01            [ 7] 2546 	ld	l, #0x01
    00000986 77               [ 7] 2547 	ld	(hl), a
                                   2548 ;video.c:86: VIDEO_REG_Y_L = (uint8_t)(y & 0xFF);
    00000987 7B               [ 4] 2549 	ld	a, e
    00000988 2E 02            [ 7] 2550 	ld	l, #0x02
    0000098A 77               [ 7] 2551 	ld	(hl), a
                                   2552 ;video.c:87: VIDEO_REG_Y_H = (uint8_t)((y >> 8) & 0x03);
    0000098B 7A               [ 4] 2553 	ld	a, d
    0000098C E6 03            [ 7] 2554 	and	a, #0x03
    0000098E 2E 03            [ 7] 2555 	ld	l, #0x03
    00000990 77               [ 7] 2556 	ld	(hl), a
                                   2557 ;video.c:89: VIDEO_REG_DATA_L = (uint8_t)(color & 0xFF);
    00000991 DD 7E 04         [19] 2558 	ld	a, 4 (ix)
    00000994 2E 04            [ 7] 2559 	ld	l, #0x04
    00000996 77               [ 7] 2560 	ld	(hl), a
                                   2561 ;video.c:91: VIDEO_REG_DATA_H = (uint8_t)(color >> 8); 
    00000997 DD 7E 05         [19] 2562 	ld	a, 5 (ix)
    0000099A 2E 05            [ 7] 2563 	ld	l, #0x05
    0000099C 77               [ 7] 2564 	ld	(hl), a
                                   2565 ;video.c:94: }
    0000099D DD F9            [10] 2566 	ld	sp, ix
    0000099F DD E1            [14] 2567 	pop	ix
    000009A1 E1               [10] 2568 	pop	hl
    000009A2 F1               [10] 2569 	pop	af
    000009A3 E9               [ 4] 2570 	jp	(hl)
                                   2571 ;video.c:97: void test_fill(void) {
                                   2572 ;	---------------------------------
                                   2573 ; Function test_fill
                                   2574 ; ---------------------------------
    000009A4                       2575 _test_fill::
    000009A4 DD E5            [15] 2576 	push	ix
    000009A6 DD 21 00 00      [14] 2577 	ld	ix,#0
    000009AA DD 39            [15] 2578 	add	ix,sp
    000009AC 21 FA FF         [10] 2579 	ld	hl, #-6
    000009AF 39               [11] 2580 	add	hl, sp
    000009B0 F9               [ 6] 2581 	ld	sp, hl
                                   2582 ;video.c:98: for(uint16_t i=0; i<200; i++) {
    000009B1 01 00 00         [10] 2583 	ld	bc, #0x0000
    000009B4                       2584 00107$:
    000009B4 33               [ 6] 2585 	inc	sp
    000009B5 33               [ 6] 2586 	inc	sp
    000009B6 C5               [11] 2587 	push	bc
    000009B7 DD 7E FA         [19] 2588 	ld	a, -6 (ix)
    000009BA D6 C8            [ 7] 2589 	sub	a, #0xc8
    000009BC DD 7E FB         [19] 2590 	ld	a, -5 (ix)
    000009BF DE 00            [ 7] 2591 	sbc	a, #0x00
    000009C1 30 49            [12] 2592 	jr	NC, 00109$
                                   2593 ;video.c:99: for(uint16_t j=0; j<200; j++) {
    000009C3 AF               [ 4] 2594 	xor	a, a
    000009C4 DD 77 FE         [19] 2595 	ld	-2 (ix), a
    000009C7 DD 77 FF         [19] 2596 	ld	-1 (ix), a
    000009CA                       2597 00104$:
    000009CA DD 7E FE         [19] 2598 	ld	a, -2 (ix)
    000009CD DD 77 FC         [19] 2599 	ld	-4 (ix), a
    000009D0 DD 7E FF         [19] 2600 	ld	a, -1 (ix)
    000009D3 DD 77 FD         [19] 2601 	ld	-3 (ix), a
    000009D6 DD 7E FC         [19] 2602 	ld	a, -4 (ix)
    000009D9 D6 C8            [ 7] 2603 	sub	a, #0xc8
    000009DB DD 7E FD         [19] 2604 	ld	a, -3 (ix)
    000009DE DE 00            [ 7] 2605 	sbc	a, #0x00
    000009E0 30 27            [12] 2606 	jr	NC, 00108$
                                   2607 ;video.c:100: vga_pixel_fast(i + 300, j + 100, YELLOW); // Un bel quadrato rosso
    000009E2 D1               [10] 2608 	pop	de
    000009E3 E1               [10] 2609 	pop	hl
    000009E4 E5               [11] 2610 	push	hl
    000009E5 D5               [11] 2611 	push	de
    000009E6 11 64 00         [10] 2612 	ld	de, #0x0064
    000009E9 19               [11] 2613 	add	hl, de
    000009EA EB               [ 4] 2614 	ex	de, hl
    000009EB DD 7E FA         [19] 2615 	ld	a, -6 (ix)
    000009EE C6 2C            [ 7] 2616 	add	a, #0x2c
    000009F0 6F               [ 4] 2617 	ld	l, a
    000009F1 3E 00            [ 7] 2618 	ld	a, #0x00
    000009F3 CE 01            [ 7] 2619 	adc	a, #0x01
    000009F5 C5               [11] 2620 	push	bc
    000009F6 01 3F 00         [10] 2621 	ld	bc, #0x003f
    000009F9 C5               [11] 2622 	push	bc
    000009FA 67               [ 4] 2623 	ld	h, a
    000009FB CDr61r09         [17] 2624 	call	_vga_pixel_fast
    000009FE C1               [10] 2625 	pop	bc
                                   2626 ;video.c:99: for(uint16_t j=0; j<200; j++) {
    000009FF DD 34 FE         [23] 2627 	inc	-2 (ix)
    00000A02 20 C6            [12] 2628 	jr	NZ, 00104$
    00000A04 DD 34 FF         [23] 2629 	inc	-1 (ix)
    00000A07 18 C1            [12] 2630 	jr	00104$
    00000A09                       2631 00108$:
                                   2632 ;video.c:98: for(uint16_t i=0; i<200; i++) {
    00000A09 03               [ 6] 2633 	inc	bc
    00000A0A 18 A8            [12] 2634 	jr	00107$
    00000A0C                       2635 00109$:
                                   2636 ;video.c:103: }
    00000A0C DD F9            [10] 2637 	ld	sp, ix
    00000A0E DD E1            [14] 2638 	pop	ix
    00000A10 C9               [10] 2639 	ret
                                   2640 ;video.c:105: void vga_clear_screen(uint16_t color) {
                                   2641 ;	---------------------------------
                                   2642 ; Function vga_clear_screen
                                   2643 ; ---------------------------------
    00000A11                       2644 _vga_clear_screen::
    00000A11 DD E5            [15] 2645 	push	ix
    00000A13 DD 21 00 00      [14] 2646 	ld	ix,#0
    00000A17 DD 39            [15] 2647 	add	ix,sp
    00000A19 F5               [11] 2648 	push	af
    00000A1A F5               [11] 2649 	push	af
                                   2650 ;video.c:107: uint16_t timeout = 1000;
    00000A1B 01 E8 03         [10] 2651 	ld	bc, #0x03e8
                                   2652 ;video.c:109: uint8_t color_l = (uint8_t)(color & 0xFF);
    00000A1E DD 75 FC         [19] 2653 	ld	-4 (ix), l
                                   2654 ;video.c:110: uint8_t color_h = (uint8_t)(color >> 8);
    00000A21 DD 74 FD         [19] 2655 	ld	-3 (ix), h
                                   2656 ;video.c:112: for (y = 0; y < 480; y++) {
    00000A24 AF               [ 4] 2657 	xor	a, a
    00000A25 DD 77 FE         [19] 2658 	ld	-2 (ix), a
    00000A28 DD 77 FF         [19] 2659 	ld	-1 (ix), a
    00000A2B                       2660 00109$:
                                   2661 ;video.c:114: VIDEO_REG_Y_L = (uint8_t)(y & 0xFF);
    00000A2B DD 7E FE         [19] 2662 	ld	a, -2 (ix)
    00000A2E 21 02 C0         [10] 2663 	ld	hl, #0xc002
    00000A31 77               [ 7] 2664 	ld	(hl), a
                                   2665 ;video.c:115: VIDEO_REG_Y_H = (uint8_t)((y >> 8) & 0x03);
    00000A32 DD 7E FF         [19] 2666 	ld	a, -1 (ix)
    00000A35 E6 03            [ 7] 2667 	and	a, #0x03
    00000A37 2E 03            [ 7] 2668 	ld	l, #0x03
    00000A39 77               [ 7] 2669 	ld	(hl), a
                                   2670 ;video.c:117: for (x = 0; x < 640; x++) {
    00000A3A 11 00 00         [10] 2671 	ld	de, #0x0000
    00000A3D                       2672 00107$:
                                   2673 ;video.c:119: VIDEO_REG_X_L = (uint8_t)(x & 0xFF);
    00000A3D 7B               [ 4] 2674 	ld	a, e
    00000A3E 21 00 C0         [10] 2675 	ld	hl, #0xc000
    00000A41 77               [ 7] 2676 	ld	(hl), a
                                   2677 ;video.c:120: VIDEO_REG_X_H = (uint8_t)((x >> 8) & 0x03);
    00000A42 7A               [ 4] 2678 	ld	a, d
    00000A43 E6 03            [ 7] 2679 	and	a, #0x03
    00000A45 2E 01            [ 7] 2680 	ld	l, #0x01
    00000A47 77               [ 7] 2681 	ld	(hl), a
                                   2682 ;video.c:125: VIDEO_REG_DATA_L = color_l;
    00000A48 2E 04            [ 7] 2683 	ld	l, #0x04
    00000A4A DD 7E FC         [19] 2684 	ld	a, -4 (ix)
    00000A4D 77               [ 7] 2685 	ld	(hl), a
                                   2686 ;video.c:126: VIDEO_REG_DATA_H = color_h; 
    00000A4E 2E 05            [ 7] 2687 	ld	l, #0x05
    00000A50 DD 7E FD         [19] 2688 	ld	a, -3 (ix)
    00000A53 77               [ 7] 2689 	ld	(hl), a
                                   2690 ;video.c:128: while((VGA_REG_STAT & 0x01) && --timeout); 
    00000A54                       2691 00102$:
    00000A54 3A 05 C0         [13] 2692 	ld	a, (#0xc005)
    00000A57 0F               [ 4] 2693 	rrca
    00000A58 30 05            [12] 2694 	jr	NC, 00118$
    00000A5A 0B               [ 6] 2695 	dec	bc
    00000A5B 78               [ 4] 2696 	ld	a, b
    00000A5C B1               [ 4] 2697 	or	a, c
    00000A5D 20 F5            [12] 2698 	jr	NZ, 00102$
    00000A5F                       2699 00118$:
                                   2700 ;video.c:117: for (x = 0; x < 640; x++) {
    00000A5F 13               [ 6] 2701 	inc	de
    00000A60 6B               [ 4] 2702 	ld	l, e
    00000A61 62               [ 4] 2703 	ld	h, d
    00000A62 7D               [ 4] 2704 	ld	a, l
    00000A63 D6 80            [ 7] 2705 	sub	a, #0x80
    00000A65 7C               [ 4] 2706 	ld	a, h
    00000A66 DE 02            [ 7] 2707 	sbc	a, #0x02
    00000A68 38 D3            [12] 2708 	jr	C, 00107$
                                   2709 ;video.c:112: for (y = 0; y < 480; y++) {
    00000A6A DD 34 FE         [23] 2710 	inc	-2 (ix)
    00000A6D 20 03            [12] 2711 	jr	NZ, 00152$
    00000A6F DD 34 FF         [23] 2712 	inc	-1 (ix)
    00000A72                       2713 00152$:
    00000A72 E1               [10] 2714 	pop	hl
    00000A73 D1               [10] 2715 	pop	de
    00000A74 D5               [11] 2716 	push	de
    00000A75 E5               [11] 2717 	push	hl
    00000A76 7B               [ 4] 2718 	ld	a, e
    00000A77 D6 E0            [ 7] 2719 	sub	a, #0xe0
    00000A79 7A               [ 4] 2720 	ld	a, d
    00000A7A DE 01            [ 7] 2721 	sbc	a, #0x01
    00000A7C 38 AD            [12] 2722 	jr	C, 00109$
                                   2723 ;video.c:131: }
    00000A7E DD F9            [10] 2724 	ld	sp, ix
    00000A80 DD E1            [14] 2725 	pop	ix
    00000A82 C9               [10] 2726 	ret
                                   2727 ;video.c:133: void vga_fillRect(uint16_t x, uint16_t y, uint16_t w, uint16_t h, uint16_t color) {
                                   2728 ;	---------------------------------
                                   2729 ; Function vga_fillRect
                                   2730 ; ---------------------------------
    00000A83                       2731 _vga_fillRect::
    00000A83 DD E5            [15] 2732 	push	ix
    00000A85 DD 21 00 00      [14] 2733 	ld	ix,#0
    00000A89 DD 39            [15] 2734 	add	ix,sp
    00000A8B FD 21 F2 FF      [14] 2735 	ld	iy, #-14
    00000A8F FD 39            [15] 2736 	add	iy, sp
    00000A91 FD F9            [10] 2737 	ld	sp, iy
    00000A93 DD 75 FC         [19] 2738 	ld	-4 (ix), l
    00000A96 DD 74 FD         [19] 2739 	ld	-3 (ix), h
    00000A99 DD 73 FA         [19] 2740 	ld	-6 (ix), e
    00000A9C DD 72 FB         [19] 2741 	ld	-5 (ix), d
                                   2742 ;video.c:134: uint16_t x_end = x + w;
    00000A9F DD 7E 04         [19] 2743 	ld	a, 4 (ix)
    00000AA2 DD 86 FC         [19] 2744 	add	a, -4 (ix)
    00000AA5 DD 77 F2         [19] 2745 	ld	-14 (ix), a
    00000AA8 DD 7E 05         [19] 2746 	ld	a, 5 (ix)
    00000AAB DD 8E FD         [19] 2747 	adc	a, -3 (ix)
    00000AAE DD 77 F3         [19] 2748 	ld	-13 (ix), a
                                   2749 ;video.c:135: uint16_t y_end = y + h;
    00000AB1 DD 7E 06         [19] 2750 	ld	a, 6 (ix)
    00000AB4 DD 86 FA         [19] 2751 	add	a, -6 (ix)
    00000AB7 DD 77 F4         [19] 2752 	ld	-12 (ix), a
    00000ABA DD 7E 07         [19] 2753 	ld	a, 7 (ix)
    00000ABD DD 8E FB         [19] 2754 	adc	a, -5 (ix)
    00000AC0 DD 77 F5         [19] 2755 	ld	-11 (ix), a
                                   2756 ;video.c:136: uint16_t timeout = 1000;
    00000AC3 DD 36 F6 E8      [19] 2757 	ld	-10 (ix), #0xe8
    00000AC7 DD 36 F7 03      [19] 2758 	ld	-9 (ix), #0x03
                                   2759 ;video.c:138: uint8_t color_lo = (uint8_t)(color & 0xFF);
    00000ACB DD 7E 08         [19] 2760 	ld	a, 8 (ix)
    00000ACE DD 77 F8         [19] 2761 	ld	-8 (ix), a
                                   2762 ;video.c:139: uint8_t color_hi = (uint8_t)(color >> 8);
    00000AD1 DD 7E 09         [19] 2763 	ld	a, 9 (ix)
    00000AD4 DD 77 F9         [19] 2764 	ld	-7 (ix), a
                                   2765 ;video.c:141: for (uint16_t i = y; i < y_end; i++) {
    00000AD7 DD 7E FA         [19] 2766 	ld	a, -6 (ix)
    00000ADA DD 77 FE         [19] 2767 	ld	-2 (ix), a
    00000ADD DD 7E FB         [19] 2768 	ld	a, -5 (ix)
    00000AE0 DD 77 FF         [19] 2769 	ld	-1 (ix), a
    00000AE3                       2770 00117$:
    00000AE3 DD 7E FE         [19] 2771 	ld	a, -2 (ix)
    00000AE6 DD 96 F4         [19] 2772 	sub	a, -12 (ix)
    00000AE9 DD 7E FF         [19] 2773 	ld	a, -1 (ix)
    00000AEC DD 9E F5         [19] 2774 	sbc	a, -11 (ix)
    00000AEF 30 66            [12] 2775 	jr	NC, 00119$
                                   2776 ;video.c:143: while(VGA_REG_STAT & 0x01); // Attesa ACK se necessario
    00000AF1                       2777 00101$:
    00000AF1 3A 05 C0         [13] 2778 	ld	a, (#0xc005)
    00000AF4 0F               [ 4] 2779 	rrca
    00000AF5 38 FA            [12] 2780 	jr	C, 00101$
                                   2781 ;video.c:144: VIDEO_REG_Y_L = (uint8_t)(i & 0xFF);
    00000AF7 DD 7E FE         [19] 2782 	ld	a, -2 (ix)
    00000AFA 21 02 C0         [10] 2783 	ld	hl, #0xc002
    00000AFD 77               [ 7] 2784 	ld	(hl), a
                                   2785 ;video.c:145: VIDEO_REG_Y_H = (uint8_t)((i >> 8) & 0x03);
    00000AFE DD 7E FF         [19] 2786 	ld	a, -1 (ix)
    00000B01 E6 03            [ 7] 2787 	and	a, #0x03
    00000B03 2E 03            [ 7] 2788 	ld	l, #0x03
    00000B05 77               [ 7] 2789 	ld	(hl), a
                                   2790 ;video.c:147: for (uint16_t j = x; j < x_end; j++) {
    00000B06 DD 4E FC         [19] 2791 	ld	c, -4 (ix)
    00000B09 DD 46 FD         [19] 2792 	ld	b, -3 (ix)
    00000B0C                       2793 00114$:
    00000B0C 79               [ 4] 2794 	ld	a, c
    00000B0D DD 96 F2         [19] 2795 	sub	a, -14 (ix)
    00000B10 78               [ 4] 2796 	ld	a, b
    00000B11 DD 9E F3         [19] 2797 	sbc	a, -13 (ix)
    00000B14 30 37            [12] 2798 	jr	NC, 00118$
                                   2799 ;video.c:150: while(VGA_REG_STAT & 0x01); 
    00000B16                       2800 00104$:
    00000B16 3A 05 C0         [13] 2801 	ld	a, (#0xc005)
    00000B19 0F               [ 4] 2802 	rrca
    00000B1A 38 FA            [12] 2803 	jr	C, 00104$
                                   2804 ;video.c:153: VIDEO_REG_X_L = (uint8_t)(j & 0xFF);
    00000B1C 79               [ 4] 2805 	ld	a, c
    00000B1D 21 00 C0         [10] 2806 	ld	hl, #0xc000
    00000B20 77               [ 7] 2807 	ld	(hl), a
                                   2808 ;video.c:154: VIDEO_REG_X_H = (uint8_t)((j >> 8) & 0x03);
    00000B21 78               [ 4] 2809 	ld	a, b
    00000B22 E6 03            [ 7] 2810 	and	a, #0x03
    00000B24 2E 01            [ 7] 2811 	ld	l, #0x01
    00000B26 77               [ 7] 2812 	ld	(hl), a
                                   2813 ;video.c:157: VIDEO_REG_DATA_L = color_lo;
    00000B27 2E 04            [ 7] 2814 	ld	l, #0x04
    00000B29 DD 7E F8         [19] 2815 	ld	a, -8 (ix)
    00000B2C 77               [ 7] 2816 	ld	(hl), a
                                   2817 ;video.c:158: VIDEO_REG_DATA_H = color_hi; 
    00000B2D 2E 05            [ 7] 2818 	ld	l, #0x05
    00000B2F DD 7E F9         [19] 2819 	ld	a, -7 (ix)
    00000B32 77               [ 7] 2820 	ld	(hl), a
                                   2821 ;video.c:159: while((VGA_REG_STAT & 0x01) && --timeout);
    00000B33 DD 5E F6         [19] 2822 	ld	e, -10 (ix)
    00000B36 DD 56 F7         [19] 2823 	ld	d, -9 (ix)
    00000B39                       2824 00108$:
    00000B39 3A 05 C0         [13] 2825 	ld	a, (#0xc005)
    00000B3C 0F               [ 4] 2826 	rrca
    00000B3D 30 05            [12] 2827 	jr	NC, 00129$
    00000B3F 1B               [ 6] 2828 	dec	de
    00000B40 7A               [ 4] 2829 	ld	a, d
    00000B41 B3               [ 4] 2830 	or	a, e
    00000B42 20 F5            [12] 2831 	jr	NZ, 00108$
    00000B44                       2832 00129$:
    00000B44 DD 73 F6         [19] 2833 	ld	-10 (ix), e
    00000B47 DD 72 F7         [19] 2834 	ld	-9 (ix), d
                                   2835 ;video.c:147: for (uint16_t j = x; j < x_end; j++) {
    00000B4A 03               [ 6] 2836 	inc	bc
    00000B4B 18 BF            [12] 2837 	jr	00114$
    00000B4D                       2838 00118$:
                                   2839 ;video.c:141: for (uint16_t i = y; i < y_end; i++) {
    00000B4D DD 34 FE         [23] 2840 	inc	-2 (ix)
    00000B50 20 91            [12] 2841 	jr	NZ, 00117$
    00000B52 DD 34 FF         [23] 2842 	inc	-1 (ix)
    00000B55 18 8C            [12] 2843 	jr	00117$
    00000B57                       2844 00119$:
                                   2845 ;video.c:162: }
    00000B57 DD F9            [10] 2846 	ld	sp, ix
    00000B59 DD E1            [14] 2847 	pop	ix
    00000B5B E1               [10] 2848 	pop	hl
    00000B5C F1               [10] 2849 	pop	af
    00000B5D F1               [10] 2850 	pop	af
    00000B5E F1               [10] 2851 	pop	af
    00000B5F E9               [ 4] 2852 	jp	(hl)
                                   2853 ;video.c:168: void vga_drawCharGL(int16_t x, int16_t y, unsigned char c, uint16_t color, uint16_t bg, uint8_t size)
                                   2854 ;	---------------------------------
                                   2855 ; Function vga_drawCharGL
                                   2856 ; ---------------------------------
    00000B60                       2857 _vga_drawCharGL::
    00000B60 DD E5            [15] 2858 	push	ix
    00000B62 DD 21 00 00      [14] 2859 	ld	ix,#0
    00000B66 DD 39            [15] 2860 	add	ix,sp
    00000B68 FD 21 E4 FF      [14] 2861 	ld	iy, #-28
    00000B6C FD 39            [15] 2862 	add	iy, sp
    00000B6E FD F9            [10] 2863 	ld	sp, iy
    00000B70 DD 73 FB         [19] 2864 	ld	-5 (ix), e
    00000B73 DD 72 FC         [19] 2865 	ld	-4 (ix), d
                                   2866 ;video.c:172: if ((x >= 640) || (y >= 480) || ((x + 6 * size - 1) < 0) || ((y + 8 * size - 1) < 0)) return;
    00000B76 DD 75 E6         [19] 2867 	ld	-26 (ix), l
    00000B79 DD 74 E7         [19] 2868 	ld	-25 (ix), h
    00000B7C DD 7E E6         [19] 2869 	ld	a, -26 (ix)
    00000B7F D6 80            [ 7] 2870 	sub	a, #0x80
    00000B81 DD 7E E7         [19] 2871 	ld	a, -25 (ix)
    00000B84 17               [ 4] 2872 	rla
    00000B85 3F               [ 4] 2873 	ccf
    00000B86 1F               [ 4] 2874 	rra
    00000B87 DE 82            [ 7] 2875 	sbc	a, #0x82
    00000B89 D2r63r0D         [10] 2876 	jp	NC, 00128$
    00000B8C DD 7E FB         [19] 2877 	ld	a, -5 (ix)
    00000B8F DD 77 E8         [19] 2878 	ld	-24 (ix), a
    00000B92 DD 7E FC         [19] 2879 	ld	a, -4 (ix)
    00000B95 DD 77 E9         [19] 2880 	ld	-23 (ix), a
    00000B98 DD 7E E8         [19] 2881 	ld	a, -24 (ix)
    00000B9B D6 E0            [ 7] 2882 	sub	a, #0xe0
    00000B9D DD 7E E9         [19] 2883 	ld	a, -23 (ix)
    00000BA0 17               [ 4] 2884 	rla
    00000BA1 3F               [ 4] 2885 	ccf
    00000BA2 1F               [ 4] 2886 	rra
    00000BA3 DE 81            [ 7] 2887 	sbc	a, #0x81
    00000BA5 D2r63r0D         [10] 2888 	jp	NC, 00128$
    00000BA8 DD 4E 09         [19] 2889 	ld	c, 9 (ix)
    00000BAB 06 00            [ 7] 2890 	ld	b, #0x00
    00000BAD 69               [ 4] 2891 	ld	l, c
    00000BAE 60               [ 4] 2892 	ld	h, b
    00000BAF 29               [11] 2893 	add	hl, hl
    00000BB0 09               [11] 2894 	add	hl, bc
    00000BB1 29               [11] 2895 	add	hl, hl
    00000BB2 DD 5E E6         [19] 2896 	ld	e, -26 (ix)
    00000BB5 DD 56 E7         [19] 2897 	ld	d, -25 (ix)
    00000BB8 19               [11] 2898 	add	hl, de
    00000BB9 2B               [ 6] 2899 	dec	hl
    00000BBA CB 7C            [ 8] 2900 	bit	7, h
    00000BBC C2r63r0D         [10] 2901 	jp	NZ, 00128$
    00000BBF 69               [ 4] 2902 	ld	l, c
    00000BC0 60               [ 4] 2903 	ld	h, b
    00000BC1 29               [11] 2904 	add	hl, hl
    00000BC2 29               [11] 2905 	add	hl, hl
    00000BC3 29               [11] 2906 	add	hl, hl
    00000BC4 DD 5E E8         [19] 2907 	ld	e, -24 (ix)
    00000BC7 DD 56 E9         [19] 2908 	ld	d, -23 (ix)
    00000BCA 19               [11] 2909 	add	hl, de
    00000BCB 2B               [ 6] 2910 	dec	hl
    00000BCC CB 7C            [ 8] 2911 	bit	7, h
    00000BCE C2r63r0D         [10] 2912 	jp	NZ, 00128$
                                   2913 ;video.c:174: bool fillbg = (bg != color);
    00000BD1 DD 7E 07         [19] 2914 	ld	a, 7 (ix)
    00000BD4 DD 96 05         [19] 2915 	sub	a, 5 (ix)
    00000BD7 20 0A            [12] 2916 	jr	NZ, 00216$
    00000BD9 DD 7E 08         [19] 2917 	ld	a, 8 (ix)
    00000BDC DD 96 06         [19] 2918 	sub	a, 6 (ix)
    00000BDF 3E 01            [ 7] 2919 	ld	a, #0x01
    00000BE1 28 01            [12] 2920 	jr	Z, 00217$
    00000BE3                       2921 00216$:
    00000BE3 AF               [ 4] 2922 	xor	a, a
    00000BE4                       2923 00217$:
    00000BE4 EE 01            [ 7] 2924 	xor	a, #0x01
    00000BE6 DD 77 EA         [19] 2925 	ld	-22 (ix), a
                                   2926 ;video.c:177: for (int8_t i = 0; i < 6; i++) {
    00000BE9 DD 7E 09         [19] 2927 	ld	a, 9 (ix)
    00000BEC 3D               [ 4] 2928 	dec	a
    00000BED 3E 01            [ 7] 2929 	ld	a, #0x01
    00000BEF 28 01            [12] 2930 	jr	Z, 00219$
    00000BF1 AF               [ 4] 2931 	xor	a, a
    00000BF2                       2932 00219$:
    00000BF2 DD 77 EB         [19] 2933 	ld	-21 (ix), a
    00000BF5 DD 77 EC         [19] 2934 	ld	-20 (ix), a
    00000BF8 DD 36 FD 00      [19] 2935 	ld	-3 (ix), #0x00
    00000BFC                       2936 00126$:
    00000BFC DD 7E FD         [19] 2937 	ld	a, -3 (ix)
    00000BFF D6 06            [ 7] 2938 	sub	a, #0x06
    00000C01 D2r63r0D         [10] 2939 	jp	NC, 00128$
                                   2940 ;video.c:180: else        line = font[(c * 5) + i];
    00000C04 DD 7E FD         [19] 2941 	ld	a, -3 (ix)
    00000C07 DD 77 ED         [19] 2942 	ld	-19 (ix), a
    00000C0A 07               [ 4] 2943 	rlca
    00000C0B 9F               [ 4] 2944 	sbc	a, a
    00000C0C DD 77 EE         [19] 2945 	ld	-18 (ix), a
                                   2946 ;video.c:179: if (i == 5) line = 0x0; // Spazio tra i caratteri
    00000C0F DD 7E FD         [19] 2947 	ld	a, -3 (ix)
    00000C12 D6 05            [ 7] 2948 	sub	a, #0x05
    00000C14 20 06            [12] 2949 	jr	NZ, 00107$
    00000C16 DD 36 FE 00      [19] 2950 	ld	-2 (ix), #0x00
    00000C1A 18 24            [12] 2951 	jr	00140$
    00000C1C                       2952 00107$:
                                   2953 ;video.c:180: else        line = font[(c * 5) + i];
    00000C1C DD 7E 04         [19] 2954 	ld	a, 4 (ix)
    00000C1F DD 77 FE         [19] 2955 	ld	-2 (ix), a
    00000C22 DD 36 FF 00      [19] 2956 	ld	-1 (ix), #0x00
    00000C26 4F               [ 4] 2957 	ld	c, a
    00000C27 06 00            [ 7] 2958 	ld	b, #0x00
    00000C29 69               [ 4] 2959 	ld	l, c
    00000C2A 60               [ 4] 2960 	ld	h, b
    00000C2B 29               [11] 2961 	add	hl, hl
    00000C2C 29               [11] 2962 	add	hl, hl
    00000C2D 09               [11] 2963 	add	hl, bc
    00000C2E DD 5E ED         [19] 2964 	ld	e, -19 (ix)
    00000C31 16 00            [ 7] 2965 	ld	d, #0x00
    00000C33 19               [11] 2966 	add	hl, de
    00000C34 3Er00            [ 7] 2967 	ld	a, #<(_font)
    00000C36 85               [ 4] 2968 	add	a, l
    00000C37 4F               [ 4] 2969 	ld	c, a
    00000C38 3Es00            [ 7] 2970 	ld	a, #>(_font)
    00000C3A 8C               [ 4] 2971 	adc	a, h
    00000C3B 47               [ 4] 2972 	ld	b, a
    00000C3C 0A               [ 7] 2973 	ld	a, (bc)
    00000C3D DD 77 FE         [19] 2974 	ld	-2 (ix), a
                                   2975 ;video.c:183: for (int8_t j = 0; j < 8; j++) {
    00000C40                       2976 00140$:
    00000C40 DD 6E 09         [19] 2977 	ld	l, 9 (ix)
    00000C43 DD 7E FD         [19] 2978 	ld	a, -3 (ix)
    00000C46 CDr00r00         [17] 2979 	call	__muluschar
    00000C49 7B               [ 4] 2980 	ld	a, e
    00000C4A DD 86 E6         [19] 2981 	add	a, -26 (ix)
    00000C4D DD 77 EF         [19] 2982 	ld	-17 (ix), a
    00000C50 7A               [ 4] 2983 	ld	a, d
    00000C51 DD 8E E7         [19] 2984 	adc	a, -25 (ix)
    00000C54 DD 77 F0         [19] 2985 	ld	-16 (ix), a
    00000C57 DD 7E EF         [19] 2986 	ld	a, -17 (ix)
    00000C5A DD 77 F1         [19] 2987 	ld	-15 (ix), a
    00000C5D DD 7E F0         [19] 2988 	ld	a, -16 (ix)
    00000C60 DD 77 F2         [19] 2989 	ld	-14 (ix), a
    00000C63 DD 36 FF 00      [19] 2990 	ld	-1 (ix), #0x00
    00000C67                       2991 00123$:
    00000C67 DD 7E FF         [19] 2992 	ld	a, -1 (ix)
    00000C6A D6 08            [ 7] 2993 	sub	a, #0x08
    00000C6C D2r5Dr0D         [10] 2994 	jp	NC, 00127$
                                   2995 ;video.c:187: vga_pixel_fast(x + i, y + j, color);
    00000C6F DD 7E FF         [19] 2996 	ld	a, -1 (ix)
    00000C72 DD 77 F9         [19] 2997 	ld	-7 (ix), a
    00000C75 07               [ 4] 2998 	rlca
    00000C76 9F               [ 4] 2999 	sbc	a, a
    00000C77 DD 77 FA         [19] 3000 	ld	-6 (ix), a
                                   3001 ;video.c:190: vga_fillRect(x + (i * size), y + (j * size), size, size, color);
    00000C7A DD 7E 09         [19] 3002 	ld	a, 9 (ix)
    00000C7D DD 77 F3         [19] 3003 	ld	-13 (ix), a
    00000C80 DD 36 F4 00      [19] 3004 	ld	-12 (ix), #0x00
    00000C84 DD 6E 09         [19] 3005 	ld	l, 9 (ix)
    00000C87 DD 7E FF         [19] 3006 	ld	a, -1 (ix)
                                   3007 ;video.c:187: vga_pixel_fast(x + i, y + j, color);
    00000C8A CDr00r00         [17] 3008 	call	__muluschar
    00000C8D 33               [ 6] 3009 	inc	sp
    00000C8E 33               [ 6] 3010 	inc	sp
    00000C8F D5               [11] 3011 	push	de
    00000C90 DD 7E F9         [19] 3012 	ld	a, -7 (ix)
    00000C93 DD 86 E8         [19] 3013 	add	a, -24 (ix)
    00000C96 DD 77 F5         [19] 3014 	ld	-11 (ix), a
    00000C99 3E 00            [ 7] 3015 	ld	a, #0x00
    00000C9B DD 8E E9         [19] 3016 	adc	a, -23 (ix)
    00000C9E DD 77 F6         [19] 3017 	ld	-10 (ix), a
    00000CA1 DD 7E E6         [19] 3018 	ld	a, -26 (ix)
    00000CA4 DD 86 ED         [19] 3019 	add	a, -19 (ix)
    00000CA7 DD 77 F7         [19] 3020 	ld	-9 (ix), a
    00000CAA DD 7E E7         [19] 3021 	ld	a, -25 (ix)
    00000CAD DD 8E EE         [19] 3022 	adc	a, -18 (ix)
    00000CB0 DD 77 F8         [19] 3023 	ld	-8 (ix), a
                                   3024 ;video.c:190: vga_fillRect(x + (i * size), y + (j * size), size, size, color);
    00000CB3 DD 7E E4         [19] 3025 	ld	a, -28 (ix)
    00000CB6 DD 86 E8         [19] 3026 	add	a, -24 (ix)
    00000CB9 DD 77 F9         [19] 3027 	ld	-7 (ix), a
    00000CBC DD 7E E5         [19] 3028 	ld	a, -27 (ix)
    00000CBF DD 8E E9         [19] 3029 	adc	a, -23 (ix)
    00000CC2 DD 77 FA         [19] 3030 	ld	-6 (ix), a
                                   3031 ;video.c:187: vga_pixel_fast(x + i, y + j, color);
                                   3032 ;video.c:190: vga_fillRect(x + (i * size), y + (j * size), size, size, color);
                                   3033 ;video.c:184: if (line & 0x1) {
    00000CC5 DD CB FE 46      [20] 3034 	bit	0, -2 (ix)
    00000CC9 28 42            [12] 3035 	jr	Z, 00118$
                                   3036 ;video.c:186: if (size == 1) {
    00000CCB DD 7E EB         [19] 3037 	ld	a, -21 (ix)
    00000CCE B7               [ 4] 3038 	or	a, a
    00000CCF 28 18            [12] 3039 	jr	Z, 00110$
                                   3040 ;video.c:187: vga_pixel_fast(x + i, y + j, color);
    00000CD1 DD 6E 05         [19] 3041 	ld	l, 5 (ix)
    00000CD4 DD 66 06         [19] 3042 	ld	h, 6 (ix)
    00000CD7 E5               [11] 3043 	push	hl
    00000CD8 DD 5E F5         [19] 3044 	ld	e, -11 (ix)
    00000CDB DD 56 F6         [19] 3045 	ld	d, -10 (ix)
    00000CDE DD 6E F7         [19] 3046 	ld	l, -9 (ix)
    00000CE1 DD 66 F8         [19] 3047 	ld	h, -8 (ix)
    00000CE4 CDr61r09         [17] 3048 	call	_vga_pixel_fast
    00000CE7 18 6A            [12] 3049 	jr	00119$
    00000CE9                       3050 00110$:
                                   3051 ;video.c:190: vga_fillRect(x + (i * size), y + (j * size), size, size, color);
    00000CE9 DD 6E F1         [19] 3052 	ld	l, -15 (ix)
    00000CEC DD 66 F2         [19] 3053 	ld	h, -14 (ix)
    00000CEF DD 5E 05         [19] 3054 	ld	e, 5 (ix)
    00000CF2 DD 56 06         [19] 3055 	ld	d, 6 (ix)
    00000CF5 D5               [11] 3056 	push	de
    00000CF6 DD 5E F3         [19] 3057 	ld	e, -13 (ix)
    00000CF9 16 00            [ 7] 3058 	ld	d, #0x00
    00000CFB D5               [11] 3059 	push	de
    00000CFC DD 5E F3         [19] 3060 	ld	e, -13 (ix)
    00000CFF 16 00            [ 7] 3061 	ld	d, #0x00
    00000D01 D5               [11] 3062 	push	de
    00000D02 DD 5E F9         [19] 3063 	ld	e, -7 (ix)
    00000D05 DD 56 FA         [19] 3064 	ld	d, -6 (ix)
    00000D08 CDr83r0A         [17] 3065 	call	_vga_fillRect
    00000D0B 18 46            [12] 3066 	jr	00119$
    00000D0D                       3067 00118$:
                                   3068 ;video.c:193: else if (fillbg) {
    00000D0D DD CB EA 46      [20] 3069 	bit	0, -22 (ix)
    00000D11 28 40            [12] 3070 	jr	Z, 00119$
                                   3071 ;video.c:195: if (size == 1) {
    00000D13 DD 7E EC         [19] 3072 	ld	a, -20 (ix)
    00000D16 B7               [ 4] 3073 	or	a, a
    00000D17 28 18            [12] 3074 	jr	Z, 00113$
                                   3075 ;video.c:196: vga_pixel_fast(x + i, y + j, bg);
    00000D19 DD 6E 07         [19] 3076 	ld	l, 7 (ix)
    00000D1C DD 66 08         [19] 3077 	ld	h, 8 (ix)
    00000D1F E5               [11] 3078 	push	hl
    00000D20 DD 5E F5         [19] 3079 	ld	e, -11 (ix)
    00000D23 DD 56 F6         [19] 3080 	ld	d, -10 (ix)
    00000D26 DD 6E F7         [19] 3081 	ld	l, -9 (ix)
    00000D29 DD 66 F8         [19] 3082 	ld	h, -8 (ix)
    00000D2C CDr61r09         [17] 3083 	call	_vga_pixel_fast
    00000D2F 18 22            [12] 3084 	jr	00119$
    00000D31                       3085 00113$:
                                   3086 ;video.c:198: vga_fillRect(x + (i * size), y + (j * size), size, size, bg);
    00000D31 DD 6E EF         [19] 3087 	ld	l, -17 (ix)
    00000D34 DD 66 F0         [19] 3088 	ld	h, -16 (ix)
    00000D37 DD 5E 07         [19] 3089 	ld	e, 7 (ix)
    00000D3A DD 56 08         [19] 3090 	ld	d, 8 (ix)
    00000D3D D5               [11] 3091 	push	de
    00000D3E DD 5E F3         [19] 3092 	ld	e, -13 (ix)
    00000D41 16 00            [ 7] 3093 	ld	d, #0x00
    00000D43 D5               [11] 3094 	push	de
    00000D44 DD 5E F3         [19] 3095 	ld	e, -13 (ix)
    00000D47 16 00            [ 7] 3096 	ld	d, #0x00
    00000D49 D5               [11] 3097 	push	de
    00000D4A DD 5E F9         [19] 3098 	ld	e, -7 (ix)
    00000D4D DD 56 FA         [19] 3099 	ld	d, -6 (ix)
    00000D50 CDr83r0A         [17] 3100 	call	_vga_fillRect
    00000D53                       3101 00119$:
                                   3102 ;video.c:201: line >>= 1; // Scorri al bit successivo della colonna
    00000D53 DD CB FE 3E      [23] 3103 	srl	-2 (ix)
                                   3104 ;video.c:183: for (int8_t j = 0; j < 8; j++) {
    00000D57 DD 34 FF         [23] 3105 	inc	-1 (ix)
    00000D5A C3r67r0C         [10] 3106 	jp	00123$
    00000D5D                       3107 00127$:
                                   3108 ;video.c:177: for (int8_t i = 0; i < 6; i++) {
    00000D5D DD 34 FD         [23] 3109 	inc	-3 (ix)
    00000D60 C3rFCr0B         [10] 3110 	jp	00126$
    00000D63                       3111 00128$:
                                   3112 ;video.c:205: }
    00000D63 DD F9            [10] 3113 	ld	sp, ix
    00000D65 DD E1            [14] 3114 	pop	ix
    00000D67 E1               [10] 3115 	pop	hl
    00000D68 F1               [10] 3116 	pop	af
    00000D69 F1               [10] 3117 	pop	af
    00000D6A F1               [10] 3118 	pop	af
    00000D6B E9               [ 4] 3119 	jp	(hl)
                                   3120 ;video.c:208: void vga_fillRect_fast(int16_t x, int16_t y, uint8_t w, uint8_t h, uint16_t color) {
                                   3121 ;	---------------------------------
                                   3122 ; Function vga_fillRect_fast
                                   3123 ; ---------------------------------
    00000D6C                       3124 _vga_fillRect_fast::
    00000D6C DD E5            [15] 3125 	push	ix
    00000D6E DD 21 00 00      [14] 3126 	ld	ix,#0
    00000D72 DD 39            [15] 3127 	add	ix,sp
    00000D74 F5               [11] 3128 	push	af
    00000D75 F5               [11] 3129 	push	af
    00000D76 F5               [11] 3130 	push	af
    00000D77 DD 75 FC         [19] 3131 	ld	-4 (ix), l
    00000D7A DD 74 FD         [19] 3132 	ld	-3 (ix), h
    00000D7D EB               [ 4] 3133 	ex	de, hl
                                   3134 ;video.c:209: for (int16_t i = 0; i < w; i++) {
    00000D7E 01 00 00         [10] 3135 	ld	bc, #0x0000
    00000D81                       3136 00107$:
    00000D81 DD 5E 04         [19] 3137 	ld	e, 4 (ix)
    00000D84 16 00            [ 7] 3138 	ld	d, #0x00
    00000D86 79               [ 4] 3139 	ld	a, c
    00000D87 93               [ 4] 3140 	sub	a, e
    00000D88 78               [ 4] 3141 	ld	a, b
    00000D89 9A               [ 4] 3142 	sbc	a, d
    00000D8A E2r8Fr0D         [10] 3143 	jp	PO, 00141$
    00000D8D EE 80            [ 7] 3144 	xor	a, #0x80
    00000D8F                       3145 00141$:
    00000D8F F2rE8r0D         [10] 3146 	jp	P, 00109$
                                   3147 ;video.c:210: for (int16_t j = 0; j < h; j++) {
    00000D92 79               [ 4] 3148 	ld	a, c
    00000D93 DD 86 FC         [19] 3149 	add	a, -4 (ix)
    00000D96 DD 77 FA         [19] 3150 	ld	-6 (ix), a
    00000D99 78               [ 4] 3151 	ld	a, b
    00000D9A DD 8E FD         [19] 3152 	adc	a, -3 (ix)
    00000D9D DD 77 FB         [19] 3153 	ld	-5 (ix), a
    00000DA0 AF               [ 4] 3154 	xor	a, a
    00000DA1 DD 77 FE         [19] 3155 	ld	-2 (ix), a
    00000DA4 DD 77 FF         [19] 3156 	ld	-1 (ix), a
    00000DA7                       3157 00104$:
    00000DA7 DD 5E 05         [19] 3158 	ld	e, 5 (ix)
    00000DAA 16 00            [ 7] 3159 	ld	d, #0x00
    00000DAC DD 7E FE         [19] 3160 	ld	a, -2 (ix)
    00000DAF 93               [ 4] 3161 	sub	a, e
    00000DB0 DD 7E FF         [19] 3162 	ld	a, -1 (ix)
    00000DB3 9A               [ 4] 3163 	sbc	a, d
    00000DB4 E2rB9r0D         [10] 3164 	jp	PO, 00142$
    00000DB7 EE 80            [ 7] 3165 	xor	a, #0x80
    00000DB9                       3166 00142$:
    00000DB9 F2rE5r0D         [10] 3167 	jp	P, 00108$
                                   3168 ;video.c:211: vga_pixel_fast(x + i, y + j, color);
    00000DBC DD 7E FE         [19] 3169 	ld	a, -2 (ix)
    00000DBF 85               [ 4] 3170 	add	a, l
    00000DC0 5F               [ 4] 3171 	ld	e, a
    00000DC1 DD 7E FF         [19] 3172 	ld	a, -1 (ix)
    00000DC4 8C               [ 4] 3173 	adc	a, h
    00000DC5 57               [ 4] 3174 	ld	d, a
    00000DC6 E5               [11] 3175 	push	hl
    00000DC7 C5               [11] 3176 	push	bc
    00000DC8 E5               [11] 3177 	push	hl
    00000DC9 DD 6E 06         [19] 3178 	ld	l, 6 (ix)
    00000DCC DD 66 07         [19] 3179 	ld	h, 7 (ix)
    00000DCF E3               [19] 3180 	ex	(sp), hl
    00000DD0 DD 6E FA         [19] 3181 	ld	l, -6 (ix)
    00000DD3 DD 66 FB         [19] 3182 	ld	h, -5 (ix)
    00000DD6 CDr61r09         [17] 3183 	call	_vga_pixel_fast
    00000DD9 C1               [10] 3184 	pop	bc
    00000DDA E1               [10] 3185 	pop	hl
                                   3186 ;video.c:210: for (int16_t j = 0; j < h; j++) {
    00000DDB DD 34 FE         [23] 3187 	inc	-2 (ix)
    00000DDE 20 C7            [12] 3188 	jr	NZ, 00104$
    00000DE0 DD 34 FF         [23] 3189 	inc	-1 (ix)
    00000DE3 18 C2            [12] 3190 	jr	00104$
    00000DE5                       3191 00108$:
                                   3192 ;video.c:209: for (int16_t i = 0; i < w; i++) {
    00000DE5 03               [ 6] 3193 	inc	bc
    00000DE6 18 99            [12] 3194 	jr	00107$
    00000DE8                       3195 00109$:
                                   3196 ;video.c:214: }
    00000DE8 DD F9            [10] 3197 	ld	sp, ix
    00000DEA DD E1            [14] 3198 	pop	ix
    00000DEC E1               [10] 3199 	pop	hl
    00000DED F1               [10] 3200 	pop	af
    00000DEE F1               [10] 3201 	pop	af
    00000DEF E9               [ 4] 3202 	jp	(hl)
                                   3203 ;video.c:220: int vga_drawChar(unsigned int uniCode, int x, int y, int font) {
                                   3204 ;	---------------------------------
                                   3205 ; Function vga_drawChar
                                   3206 ; ---------------------------------
    00000DF0                       3207 _vga_drawChar::
    00000DF0 DD E5            [15] 3208 	push	ix
    00000DF2 DD 21 00 00      [14] 3209 	ld	ix,#0
    00000DF6 DD 39            [15] 3210 	add	ix,sp
    00000DF8 FD 21 E2 FF      [14] 3211 	ld	iy, #-30
    00000DFC FD 39            [15] 3212 	add	iy, sp
    00000DFE FD F9            [10] 3213 	ld	sp, iy
    00000E00 4D               [ 4] 3214 	ld	c, l
    00000E01 44               [ 4] 3215 	ld	b, h
    00000E02 DD 73 F8         [19] 3216 	ld	-8 (ix), e
    00000E05 DD 72 F9         [19] 3217 	ld	-7 (ix), d
                                   3218 ;video.c:223: int width = 0;
    00000E08 AF               [ 4] 3219 	xor	a, a
    00000E09 DD 77 E6         [19] 3220 	ld	-26 (ix), a
    00000E0C DD 77 E7         [19] 3221 	ld	-25 (ix), a
                                   3222 ;video.c:224: int height = 0;
    00000E0F AF               [ 4] 3223 	xor	a, a
    00000E10 DD 77 E8         [19] 3224 	ld	-24 (ix), a
    00000E13 DD 77 E9         [19] 3225 	ld	-23 (ix), a
                                   3226 ;video.c:225: unsigned int flash_address = 0; 
    00000E16 AF               [ 4] 3227 	xor	a, a
    00000E17 DD 77 FE         [19] 3228 	ld	-2 (ix), a
    00000E1A DD 77 FF         [19] 3229 	ld	-1 (ix), a
                                   3230 ;video.c:233: if (font == 1) {
    00000E1D DD 7E 06         [19] 3231 	ld	a, 6 (ix)
    00000E20 3D               [ 4] 3232 	dec	a
    00000E21 DD B6 07         [19] 3233 	or	a, 7 (ix)
    00000E24 20 34            [12] 3234 	jr	NZ, 00102$
                                   3235 ;video.c:235: vga_drawCharGL(x, y, uniCode, textcolor, textbgcolor, textsize);
    00000E26 41               [ 4] 3236 	ld	b, c
    00000E27 DD 5E 04         [19] 3237 	ld	e, 4 (ix)
    00000E2A DD 56 05         [19] 3238 	ld	d, 5 (ix)
    00000E2D DD 7E F8         [19] 3239 	ld	a, -8 (ix)
    00000E30 DD 4E F9         [19] 3240 	ld	c, -7 (ix)
    00000E33 FD 21r15r00      [14] 3241 	ld	iy, #_textsize
    00000E37 FD 66 00         [19] 3242 	ld	h, 0 (iy)
    00000E3A E5               [11] 3243 	push	hl
    00000E3B 33               [ 6] 3244 	inc	sp
    00000E3C 2Ar02r00         [16] 3245 	ld	hl, (_textbgcolor)
    00000E3F E5               [11] 3246 	push	hl
    00000E40 2Ar00r00         [16] 3247 	ld	hl, (_textcolor)
    00000E43 E5               [11] 3248 	push	hl
    00000E44 C5               [11] 3249 	push	bc
    00000E45 33               [ 6] 3250 	inc	sp
    00000E46 6F               [ 4] 3251 	ld	l, a
    00000E47 61               [ 4] 3252 	ld	h, c
    00000E48 CDr60r0B         [17] 3253 	call	_vga_drawCharGL
                                   3254 ;video.c:236: return 6 * textsize;
    00000E4B 3Ar15r00         [13] 3255 	ld	a, (_textsize)
    00000E4E 4F               [ 4] 3256 	ld	c, a
    00000E4F 06 00            [ 7] 3257 	ld	b, #0x00
    00000E51 69               [ 4] 3258 	ld	l, c
    00000E52 60               [ 4] 3259 	ld	h, b
    00000E53 29               [11] 3260 	add	hl, hl
    00000E54 09               [11] 3261 	add	hl, bc
    00000E55 29               [11] 3262 	add	hl, hl
    00000E56 EB               [ 4] 3263 	ex	de, hl
    00000E57 C3r32r12         [10] 3264 	jp	00150$
    00000E5A                       3265 00102$:
                                   3266 ;video.c:242: if (uniCode < 32) return 0;
    00000E5A 79               [ 4] 3267 	ld	a, c
    00000E5B D6 20            [ 7] 3268 	sub	a, #0x20
    00000E5D 78               [ 4] 3269 	ld	a, b
    00000E5E DE 00            [ 7] 3270 	sbc	a, #0x00
    00000E60 30 06            [12] 3271 	jr	NC, 00104$
    00000E62 11 00 00         [10] 3272 	ld	de, #0x0000
    00000E65 C3r32r12         [10] 3273 	jp	00150$
    00000E68                       3274 00104$:
                                   3275 ;video.c:243: uniCode -= 32;
    00000E68 79               [ 4] 3276 	ld	a, c
    00000E69 C6 E0            [ 7] 3277 	add	a, #0xe0
    00000E6B 4F               [ 4] 3278 	ld	c, a
    00000E6C 78               [ 4] 3279 	ld	a, b
    00000E6D CE FF            [ 7] 3280 	adc	a, #0xff
    00000E6F 47               [ 4] 3281 	ld	b, a
                                   3282 ;video.c:246: if (font == 2) {
    00000E70 DD 7E 06         [19] 3283 	ld	a, 6 (ix)
    00000E73 D6 02            [ 7] 3284 	sub	a, #0x02
    00000E75 DD B6 07         [19] 3285 	or	a, 7 (ix)
    00000E78 20 24            [12] 3286 	jr	NZ, 00106$
                                   3287 ;video.c:247: flash_address = (unsigned int)chrtbl_f16[uniCode];
    00000E7A 11rD4r06         [10] 3288 	ld	de, #_chrtbl_f16+0
    00000E7D 69               [ 4] 3289 	ld	l, c
    00000E7E 60               [ 4] 3290 	ld	h, b
    00000E7F 29               [11] 3291 	add	hl, hl
    00000E80 19               [11] 3292 	add	hl, de
    00000E81 7E               [ 7] 3293 	ld	a, (hl)
    00000E82 23               [ 6] 3294 	inc	hl
    00000E83 5E               [ 7] 3295 	ld	e, (hl)
    00000E84 DD 77 FE         [19] 3296 	ld	-2 (ix), a
    00000E87 DD 73 FF         [19] 3297 	ld	-1 (ix), e
                                   3298 ;video.c:248: width = (int)widtbl_f16[uniCode];
    00000E8A 21r74r06         [10] 3299 	ld	hl, #_widtbl_f16+0
    00000E8D 09               [11] 3300 	add	hl, bc
    00000E8E 7E               [ 7] 3301 	ld	a, (hl)
    00000E8F DD 77 E6         [19] 3302 	ld	-26 (ix), a
    00000E92 DD 36 E7 00      [19] 3303 	ld	-25 (ix), #0x00
                                   3304 ;video.c:249: height = (int)chr_hgt_f16;
    00000E96 DD 36 E8 10      [19] 3305 	ld	-24 (ix), #0x10
    00000E9A DD 36 E9 00      [19] 3306 	ld	-23 (ix), #0
    00000E9E                       3307 00106$:
                                   3308 ;video.c:253: w_bytes = (width + 7) / 8;
    00000E9E DD 6E E6         [19] 3309 	ld	l, -26 (ix)
    00000EA1 26 00            [ 7] 3310 	ld	h, #0x00
    00000EA3 11 07 00         [10] 3311 	ld	de, #0x0007
    00000EA6 19               [11] 3312 	add	hl, de
    00000EA7 DD 75 EA         [19] 3313 	ld	-22 (ix), l
    00000EAA DD 74 EB         [19] 3314 	ld	-21 (ix), h
    00000EAD DD CB EB 2E      [23] 3315 	sra	-21 (ix)
    00000EB1 DD CB EA 1E      [23] 3316 	rr	-22 (ix)
    00000EB5 DD CB EB 2E      [23] 3317 	sra	-21 (ix)
    00000EB9 DD CB EA 1E      [23] 3318 	rr	-22 (ix)
    00000EBD DD CB EB 2E      [23] 3319 	sra	-21 (ix)
    00000EC1 DD CB EA 1E      [23] 3320 	rr	-22 (ix)
                                   3321 ;video.c:255: ptr_font = (const unsigned char *)flash_address;
    00000EC5 DD 7E FE         [19] 3322 	ld	a, -2 (ix)
    00000EC8 DD 77 EC         [19] 3323 	ld	-20 (ix), a
    00000ECB DD 7E FF         [19] 3324 	ld	a, -1 (ix)
    00000ECE DD 77 ED         [19] 3325 	ld	-19 (ix), a
                                   3326 ;video.c:258: if (textcolor == textbgcolor || textsize != 1) {
    00000ED1 3Ar00r00         [13] 3327 	ld	a, (_textcolor+0)
    00000ED4 FD 21r02r00      [14] 3328 	ld	iy, #_textbgcolor
    00000ED8 FD 96 00         [19] 3329 	sub	a, 0 (iy)
    00000EDB 20 08            [12] 3330 	jr	NZ, 00335$
    00000EDD 3Ar01r00         [13] 3331 	ld	a, (_textcolor+1)
    00000EE0 FD 96 01         [19] 3332 	sub	a, 1 (iy)
    00000EE3 28 07            [12] 3333 	jr	Z, 00168$
    00000EE5                       3334 00335$:
    00000EE5 3Ar15r00         [13] 3335 	ld	a, (_textsize+0)
    00000EE8 3D               [ 4] 3336 	dec	a
    00000EE9 CAr95r10         [10] 3337 	jp	Z, 00179$
                                   3338 ;video.c:259: for (i = 0; i < height; i++) {
    00000EEC                       3339 00168$:
    00000EEC AF               [ 4] 3340 	xor	a, a
    00000EED DD 77 FA         [19] 3341 	ld	-6 (ix), a
    00000EF0 DD 77 FB         [19] 3342 	ld	-5 (ix), a
    00000EF3                       3343 00140$:
    00000EF3 DD 7E FA         [19] 3344 	ld	a, -6 (ix)
    00000EF6 DD 96 E8         [19] 3345 	sub	a, -24 (ix)
    00000EF9 DD 7E FB         [19] 3346 	ld	a, -5 (ix)
    00000EFC DD 9E E9         [19] 3347 	sbc	a, -23 (ix)
    00000EFF E2r04r0F         [10] 3348 	jp	PO, 00337$
    00000F02 EE 80            [ 7] 3349 	xor	a, #0x80
    00000F04                       3350 00337$:
    00000F04 F2r24r12         [10] 3351 	jp	P, 00132$
                                   3352 ;video.c:260: if (textcolor != textbgcolor) {
    00000F07 3Ar00r00         [13] 3353 	ld	a, (_textcolor+0)
    00000F0A FD 21r02r00      [14] 3354 	ld	iy, #_textbgcolor
    00000F0E FD 96 00         [19] 3355 	sub	a, 0 (iy)
    00000F11 20 08            [12] 3356 	jr	NZ, 00338$
    00000F13 3Ar01r00         [13] 3357 	ld	a, (_textcolor+1)
    00000F16 FD 96 01         [19] 3358 	sub	a, 1 (iy)
    00000F19 28 49            [12] 3359 	jr	Z, 00167$
    00000F1B                       3360 00338$:
                                   3361 ;video.c:261: vga_fillRect(x, y + (i * textsize), width * textsize, textsize, textbgcolor);
    00000F1B 3Ar15r00         [13] 3362 	ld	a, (_textsize+0)
    00000F1E DD 77 FE         [19] 3363 	ld	-2 (ix), a
    00000F21 DD 36 FF 00      [19] 3364 	ld	-1 (ix), #0x00
    00000F25 3Ar15r00         [13] 3365 	ld	a, (_textsize)
    00000F28 5F               [ 4] 3366 	ld	e, a
    00000F29 16 00            [ 7] 3367 	ld	d, #0x00
    00000F2B D5               [11] 3368 	push	de
    00000F2C DD 6E E6         [19] 3369 	ld	l, -26 (ix)
    00000F2F 26 00            [ 7] 3370 	ld	h, #0x00
    00000F31 CDr00r00         [17] 3371 	call	__mulint
    00000F34 D5               [11] 3372 	push	de
    00000F35 FD E1            [14] 3373 	pop	iy
    00000F37 D1               [10] 3374 	pop	de
    00000F38 FD E5            [15] 3375 	push	iy
    00000F3A DD 6E FA         [19] 3376 	ld	l, -6 (ix)
    00000F3D DD 66 FB         [19] 3377 	ld	h, -5 (ix)
    00000F40 CDr00r00         [17] 3378 	call	__mulint
    00000F43 FD E1            [14] 3379 	pop	iy
    00000F45 DD 6E 04         [19] 3380 	ld	l, 4 (ix)
    00000F48 DD 66 05         [19] 3381 	ld	h, 5 (ix)
    00000F4B 19               [11] 3382 	add	hl, de
    00000F4C EB               [ 4] 3383 	ex	de, hl
    00000F4D DD 7E F8         [19] 3384 	ld	a, -8 (ix)
    00000F50 DD 4E F9         [19] 3385 	ld	c, -7 (ix)
    00000F53 2Ar02r00         [16] 3386 	ld	hl, (_textbgcolor)
    00000F56 E5               [11] 3387 	push	hl
    00000F57 DD 6E FE         [19] 3388 	ld	l, -2 (ix)
    00000F5A 26 00            [ 7] 3389 	ld	h, #0x00
    00000F5C E5               [11] 3390 	push	hl
    00000F5D FD E5            [15] 3391 	push	iy
    00000F5F 6F               [ 4] 3392 	ld	l, a
    00000F60 61               [ 4] 3393 	ld	h, c
    00000F61 CDr83r0A         [17] 3394 	call	_vga_fillRect
                                   3395 ;video.c:264: for (k = 0; k < w_bytes; k++) {
    00000F64                       3396 00167$:
    00000F64 DD 7E 04         [19] 3397 	ld	a, 4 (ix)
    00000F67 DD 86 FA         [19] 3398 	add	a, -6 (ix)
    00000F6A DD 77 EF         [19] 3399 	ld	-17 (ix), a
    00000F6D DD 7E 05         [19] 3400 	ld	a, 5 (ix)
    00000F70 DD 8E FB         [19] 3401 	adc	a, -5 (ix)
    00000F73 DD 77 F0         [19] 3402 	ld	-16 (ix), a
    00000F76 DD 5E FA         [19] 3403 	ld	e, -6 (ix)
    00000F79 DD 56 FB         [19] 3404 	ld	d, -5 (ix)
    00000F7C DD 6E EA         [19] 3405 	ld	l, -22 (ix)
    00000F7F 26 00            [ 7] 3406 	ld	h, #0x00
    00000F81 CDr00r00         [17] 3407 	call	__mulint
    00000F84 DD 73 F1         [19] 3408 	ld	-15 (ix), e
    00000F87 DD 72 F2         [19] 3409 	ld	-14 (ix), d
    00000F8A AF               [ 4] 3410 	xor	a, a
    00000F8B DD 77 FC         [19] 3411 	ld	-4 (ix), a
    00000F8E DD 77 FD         [19] 3412 	ld	-3 (ix), a
    00000F91                       3413 00137$:
    00000F91 DD 7E FC         [19] 3414 	ld	a, -4 (ix)
    00000F94 DD 96 EA         [19] 3415 	sub	a, -22 (ix)
    00000F97 DD 7E FD         [19] 3416 	ld	a, -3 (ix)
    00000F9A DD 9E EB         [19] 3417 	sbc	a, -21 (ix)
    00000F9D E2rA2r0F         [10] 3418 	jp	PO, 00339$
    00000FA0 EE 80            [ 7] 3419 	xor	a, #0x80
    00000FA2                       3420 00339$:
    00000FA2 F2r89r10         [10] 3421 	jp	P, 00141$
                                   3422 ;video.c:266: line = ptr_font[w_bytes * i + k];
    00000FA5 DD 7E F1         [19] 3423 	ld	a, -15 (ix)
    00000FA8 DD 86 FC         [19] 3424 	add	a, -4 (ix)
    00000FAB 4F               [ 4] 3425 	ld	c, a
    00000FAC DD 7E F2         [19] 3426 	ld	a, -14 (ix)
    00000FAF DD 8E FD         [19] 3427 	adc	a, -3 (ix)
    00000FB2 47               [ 4] 3428 	ld	b, a
    00000FB3 DD 6E EC         [19] 3429 	ld	l, -20 (ix)
    00000FB6 DD 66 ED         [19] 3430 	ld	h, -19 (ix)
    00000FB9 09               [11] 3431 	add	hl, bc
    00000FBA 7E               [ 7] 3432 	ld	a, (hl)
                                   3433 ;video.c:268: if (line) {
    00000FBB DD 77 F3         [19] 3434 	ld	-13 (ix), a
    00000FBE B7               [ 4] 3435 	or	a, a
    00000FBF CAr7Dr10         [10] 3436 	jp	Z, 00138$
                                   3437 ;video.c:269: pX = x + (k * 8 * textsize);
    00000FC2 DD 6E FC         [19] 3438 	ld	l, -4 (ix)
    00000FC5 DD 66 FD         [19] 3439 	ld	h, -3 (ix)
    00000FC8 29               [11] 3440 	add	hl, hl
    00000FC9 29               [11] 3441 	add	hl, hl
    00000FCA 29               [11] 3442 	add	hl, hl
    00000FCB 3Ar15r00         [13] 3443 	ld	a, (_textsize)
    00000FCE 16 00            [ 7] 3444 	ld	d, #0x00
    00000FD0 5F               [ 4] 3445 	ld	e, a
    00000FD1 CDr00r00         [17] 3446 	call	__mulint
    00000FD4 7B               [ 4] 3447 	ld	a, e
    00000FD5 DD 86 F8         [19] 3448 	add	a, -8 (ix)
    00000FD8 DD 77 F4         [19] 3449 	ld	-12 (ix), a
    00000FDB 7A               [ 4] 3450 	ld	a, d
    00000FDC DD 8E F9         [19] 3451 	adc	a, -7 (ix)
    00000FDF DD 77 F5         [19] 3452 	ld	-11 (ix), a
                                   3453 ;video.c:270: for (bit = 0; bit < 8; bit++) {
    00000FE2 AF               [ 4] 3454 	xor	a, a
    00000FE3 DD 77 FE         [19] 3455 	ld	-2 (ix), a
    00000FE6 DD 77 FF         [19] 3456 	ld	-1 (ix), a
    00000FE9                       3457 00134$:
                                   3458 ;video.c:271: if (line & (0x80 >> bit)) {
    00000FE9 DD 46 FE         [19] 3459 	ld	b, -2 (ix)
    00000FEC 11 80 00         [10] 3460 	ld	de, #0x0080
    00000FEF 04               [ 4] 3461 	inc	b
    00000FF0 18 04            [12] 3462 	jr	00341$
    00000FF2                       3463 00340$:
    00000FF2 CB 2A            [ 8] 3464 	sra	d
    00000FF4 CB 1B            [ 8] 3465 	rr	e
    00000FF6                       3466 00341$:
    00000FF6 10 FA            [13] 3467 	djnz	00340$
    00000FF8 DD 7E F3         [19] 3468 	ld	a, -13 (ix)
    00000FFB A3               [ 4] 3469 	and	a, e
    00000FFC 28 74            [12] 3470 	jr	Z, 00135$
                                   3471 ;video.c:272: if (textsize == 1) {
    00000FFE 3Ar15r00         [13] 3472 	ld	a, (_textsize+0)
    00001001 3D               [ 4] 3473 	dec	a
    00001002 20 1E            [12] 3474 	jr	NZ, 00110$
                                   3475 ;video.c:273: vga_pixel_fast(pX + bit, y + i, textcolor);
    00001004 DD 5E EF         [19] 3476 	ld	e, -17 (ix)
    00001007 DD 56 F0         [19] 3477 	ld	d, -16 (ix)
    0000100A DD 7E F4         [19] 3478 	ld	a, -12 (ix)
    0000100D DD 86 FE         [19] 3479 	add	a, -2 (ix)
    00001010 4F               [ 4] 3480 	ld	c, a
    00001011 DD 7E F5         [19] 3481 	ld	a, -11 (ix)
    00001014 DD 8E FF         [19] 3482 	adc	a, -1 (ix)
    00001017 2Ar00r00         [16] 3483 	ld	hl, (_textcolor)
    0000101A E5               [11] 3484 	push	hl
    0000101B 69               [ 4] 3485 	ld	l, c
    0000101C 67               [ 4] 3486 	ld	h, a
    0000101D CDr61r09         [17] 3487 	call	_vga_pixel_fast
    00001020 18 50            [12] 3488 	jr	00135$
    00001022                       3489 00110$:
                                   3490 ;video.c:275: vga_fillRect(pX + bit * textsize, y + i * textsize, textsize, textsize, textcolor);
    00001022 3Ar15r00         [13] 3491 	ld	a, (_textsize+0)
    00001025 DD 77 F6         [19] 3492 	ld	-10 (ix), a
    00001028 DD 36 F7 00      [19] 3493 	ld	-9 (ix), #0x00
    0000102C 3Ar15r00         [13] 3494 	ld	a, (_textsize)
    0000102F 5F               [ 4] 3495 	ld	e, a
    00001030 16 00            [ 7] 3496 	ld	d, #0x00
    00001032 D5               [11] 3497 	push	de
    00001033 DD 6E FA         [19] 3498 	ld	l, -6 (ix)
    00001036 DD 66 FB         [19] 3499 	ld	h, -5 (ix)
    00001039 CDr00r00         [17] 3500 	call	__mulint
    0000103C 4B               [ 4] 3501 	ld	c, e
    0000103D 42               [ 4] 3502 	ld	b, d
    0000103E D1               [10] 3503 	pop	de
    0000103F DD 6E 04         [19] 3504 	ld	l, 4 (ix)
    00001042 DD 66 05         [19] 3505 	ld	h, 5 (ix)
    00001045 09               [11] 3506 	add	hl, bc
    00001046 E5               [11] 3507 	push	hl
    00001047 DD 6E FE         [19] 3508 	ld	l, -2 (ix)
    0000104A 26 00            [ 7] 3509 	ld	h, #0x00
    0000104C CDr00r00         [17] 3510 	call	__mulint
    0000104F C1               [10] 3511 	pop	bc
    00001050 DD 6E F4         [19] 3512 	ld	l, -12 (ix)
    00001053 DD 66 F5         [19] 3513 	ld	h, -11 (ix)
    00001056 19               [11] 3514 	add	hl, de
    00001057 E5               [11] 3515 	push	hl
    00001058 FD E1            [14] 3516 	pop	iy
    0000105A 2Ar00r00         [16] 3517 	ld	hl, (_textcolor)
    0000105D E5               [11] 3518 	push	hl
    0000105E DD 6E F6         [19] 3519 	ld	l, -10 (ix)
    00001061 26 00            [ 7] 3520 	ld	h, #0x00
    00001063 E5               [11] 3521 	push	hl
    00001064 DD 6E F6         [19] 3522 	ld	l, -10 (ix)
    00001067 26 00            [ 7] 3523 	ld	h, #0x00
    00001069 E5               [11] 3524 	push	hl
    0000106A 59               [ 4] 3525 	ld	e, c
    0000106B 50               [ 4] 3526 	ld	d, b
    0000106C FD E5            [15] 3527 	push	iy
    0000106E E1               [10] 3528 	pop	hl
    0000106F CDr83r0A         [17] 3529 	call	_vga_fillRect
    00001072                       3530 00135$:
                                   3531 ;video.c:270: for (bit = 0; bit < 8; bit++) {
    00001072 DD 34 FE         [23] 3532 	inc	-2 (ix)
    00001075 DD 7E FE         [19] 3533 	ld	a, -2 (ix)
    00001078 D6 08            [ 7] 3534 	sub	a, #0x08
    0000107A DArE9r0F         [10] 3535 	jp	C, 00134$
    0000107D                       3536 00138$:
                                   3537 ;video.c:264: for (k = 0; k < w_bytes; k++) {
    0000107D DD 34 FC         [23] 3538 	inc	-4 (ix)
    00001080 C2r91r0F         [10] 3539 	jp	NZ, 00137$
    00001083 DD 34 FD         [23] 3540 	inc	-3 (ix)
    00001086 C3r91r0F         [10] 3541 	jp	00137$
    00001089                       3542 00141$:
                                   3543 ;video.c:259: for (i = 0; i < height; i++) {
    00001089 DD 34 FA         [23] 3544 	inc	-6 (ix)
    0000108C C2rF3r0E         [10] 3545 	jp	NZ, 00140$
    0000108F DD 34 FB         [23] 3546 	inc	-5 (ix)
    00001092 C3rF3r0E         [10] 3547 	jp	00140$
                                   3548 ;video.c:285: for (i = 0; i < height; i++) {
    00001095                       3549 00179$:
    00001095 AF               [ 4] 3550 	xor	a, a
    00001096 DD 77 FA         [19] 3551 	ld	-6 (ix), a
    00001099 DD 77 FB         [19] 3552 	ld	-5 (ix), a
    0000109C                       3553 00148$:
    0000109C DD 7E FA         [19] 3554 	ld	a, -6 (ix)
    0000109F DD 96 E8         [19] 3555 	sub	a, -24 (ix)
    000010A2 DD 7E FB         [19] 3556 	ld	a, -5 (ix)
    000010A5 DD 9E E9         [19] 3557 	sbc	a, -23 (ix)
    000010A8 E2rADr10         [10] 3558 	jp	PO, 00347$
    000010AB EE 80            [ 7] 3559 	xor	a, #0x80
    000010AD                       3560 00347$:
    000010AD F2r24r12         [10] 3561 	jp	P, 00132$
                                   3562 ;video.c:286: current_y = y + i;
    000010B0 DD 7E 04         [19] 3563 	ld	a, 4 (ix)
    000010B3 DD 86 FA         [19] 3564 	add	a, -6 (ix)
    000010B6 5F               [ 4] 3565 	ld	e, a
    000010B7 DD 7E 05         [19] 3566 	ld	a, 5 (ix)
    000010BA DD 8E FB         [19] 3567 	adc	a, -5 (ix)
    000010BD 57               [ 4] 3568 	ld	d, a
                                   3569 ;video.c:288: while(VGA_REG_STAT & 0x01);
    000010BE                       3570 00119$:
    000010BE 3A 05 C0         [13] 3571 	ld	a, (#0xc005)
    000010C1 0F               [ 4] 3572 	rrca
    000010C2 38 FA            [12] 3573 	jr	C, 00119$
                                   3574 ;video.c:289: VIDEO_REG_Y_L = (uint8_t)(current_y & 0xFF);
    000010C4 7B               [ 4] 3575 	ld	a, e
    000010C5 21 02 C0         [10] 3576 	ld	hl, #0xc002
    000010C8 77               [ 7] 3577 	ld	(hl), a
                                   3578 ;video.c:290: VIDEO_REG_Y_H = (uint8_t)((current_y >> 8) & 0x03);
    000010C9 7A               [ 4] 3579 	ld	a, d
    000010CA E6 03            [ 7] 3580 	and	a, #0x03
    000010CC 2E 03            [ 7] 3581 	ld	l, #0x03
    000010CE 77               [ 7] 3582 	ld	(hl), a
                                   3583 ;video.c:292: for (k = 0; k < w_bytes; k++) {
    000010CF DD 5E FA         [19] 3584 	ld	e, -6 (ix)
    000010D2 DD 56 FB         [19] 3585 	ld	d, -5 (ix)
    000010D5 DD 6E EA         [19] 3586 	ld	l, -22 (ix)
    000010D8 26 00            [ 7] 3587 	ld	h, #0x00
    000010DA CDr00r00         [17] 3588 	call	__mulint
    000010DD DD 73 EE         [19] 3589 	ld	-18 (ix), e
    000010E0 DD 72 EF         [19] 3590 	ld	-17 (ix), d
    000010E3 AF               [ 4] 3591 	xor	a, a
    000010E4 DD 77 FC         [19] 3592 	ld	-4 (ix), a
    000010E7 DD 77 FD         [19] 3593 	ld	-3 (ix), a
    000010EA                       3594 00145$:
    000010EA DD 7E FC         [19] 3595 	ld	a, -4 (ix)
    000010ED DD 96 EA         [19] 3596 	sub	a, -22 (ix)
    000010F0 DD 7E FD         [19] 3597 	ld	a, -3 (ix)
    000010F3 DD 9E EB         [19] 3598 	sbc	a, -21 (ix)
    000010F6 E2rFBr10         [10] 3599 	jp	PO, 00350$
    000010F9 EE 80            [ 7] 3600 	xor	a, #0x80
    000010FB                       3601 00350$:
    000010FB F2r18r12         [10] 3602 	jp	P, 00149$
                                   3603 ;video.c:294: line = ptr_font[w_bytes * i + k];
    000010FE DD 7E FC         [19] 3604 	ld	a, -4 (ix)
    00001101 DD 86 EE         [19] 3605 	add	a, -18 (ix)
    00001104 DD 77 F6         [19] 3606 	ld	-10 (ix), a
    00001107 DD 7E FD         [19] 3607 	ld	a, -3 (ix)
    0000110A DD 8E EF         [19] 3608 	adc	a, -17 (ix)
    0000110D DD 77 F7         [19] 3609 	ld	-9 (ix), a
    00001110 DD 7E F6         [19] 3610 	ld	a, -10 (ix)
    00001113 DD 86 EC         [19] 3611 	add	a, -20 (ix)
    00001116 DD 77 FE         [19] 3612 	ld	-2 (ix), a
    00001119 DD 7E F7         [19] 3613 	ld	a, -9 (ix)
    0000111C DD 8E ED         [19] 3614 	adc	a, -19 (ix)
    0000111F DD 77 FF         [19] 3615 	ld	-1 (ix), a
    00001122 DD 6E FE         [19] 3616 	ld	l, -2 (ix)
    00001125 DD 66 FF         [19] 3617 	ld	h, -1 (ix)
    00001128 7E               [ 7] 3618 	ld	a, (hl)
    00001129 DD 77 F0         [19] 3619 	ld	-16 (ix), a
                                   3620 ;video.c:295: base_x = x + (k * 8);
    0000112C DD 7E FC         [19] 3621 	ld	a, -4 (ix)
    0000112F DD 77 FE         [19] 3622 	ld	-2 (ix), a
    00001132 DD 7E FD         [19] 3623 	ld	a, -3 (ix)
    00001135 DD 77 FF         [19] 3624 	ld	-1 (ix), a
    00001138 06 03            [ 7] 3625 	ld	b, #0x03
    0000113A                       3626 00351$:
    0000113A DD CB FE 26      [23] 3627 	sla	-2 (ix)
    0000113E DD CB FF 16      [23] 3628 	rl	-1 (ix)
    00001142 10 F6            [13] 3629 	djnz	00351$
    00001144 DD 7E F8         [19] 3630 	ld	a, -8 (ix)
    00001147 DD 86 FE         [19] 3631 	add	a, -2 (ix)
    0000114A DD 77 F1         [19] 3632 	ld	-15 (ix), a
    0000114D DD 7E F9         [19] 3633 	ld	a, -7 (ix)
    00001150 DD 8E FF         [19] 3634 	adc	a, -1 (ix)
    00001153 DD 77 F2         [19] 3635 	ld	-14 (ix), a
                                   3636 ;video.c:297: for (bit = 0; bit < 8; bit++) {
    00001156 DD 7E FE         [19] 3637 	ld	a, -2 (ix)
    00001159 DD 77 F3         [19] 3638 	ld	-13 (ix), a
    0000115C DD 7E FF         [19] 3639 	ld	a, -1 (ix)
    0000115F DD 77 F4         [19] 3640 	ld	-12 (ix), a
    00001162 AF               [ 4] 3641 	xor	a, a
    00001163 DD 77 FE         [19] 3642 	ld	-2 (ix), a
    00001166 DD 77 FF         [19] 3643 	ld	-1 (ix), a
    00001169                       3644 00142$:
                                   3645 ;video.c:298: if ((k * 8) + bit >= width) break;
    00001169 DD 7E F3         [19] 3646 	ld	a, -13 (ix)
    0000116C DD 86 FE         [19] 3647 	add	a, -2 (ix)
    0000116F DD 77 F6         [19] 3648 	ld	-10 (ix), a
    00001172 DD 7E F4         [19] 3649 	ld	a, -12 (ix)
    00001175 DD 8E FF         [19] 3650 	adc	a, -1 (ix)
    00001178 DD 77 F7         [19] 3651 	ld	-9 (ix), a
    0000117B DD 7E F6         [19] 3652 	ld	a, -10 (ix)
    0000117E DD 96 E6         [19] 3653 	sub	a, -26 (ix)
    00001181 DD 7E F7         [19] 3654 	ld	a, -9 (ix)
    00001184 DD 9E E7         [19] 3655 	sbc	a, -25 (ix)
    00001187 E2r8Cr11         [10] 3656 	jp	PO, 00352$
    0000118A EE 80            [ 7] 3657 	xor	a, #0x80
    0000118C                       3658 00352$:
    0000118C F2r0Cr12         [10] 3659 	jp	P, 00146$
                                   3660 ;video.c:300: current_x = base_x + bit;
    0000118F DD 7E F1         [19] 3661 	ld	a, -15 (ix)
    00001192 DD 86 FE         [19] 3662 	add	a, -2 (ix)
    00001195 DD 77 E4         [19] 3663 	ld	-28 (ix), a
    00001198 DD 7E F2         [19] 3664 	ld	a, -14 (ix)
    0000119B DD 8E FF         [19] 3665 	adc	a, -1 (ix)
    0000119E DD 77 E5         [19] 3666 	ld	-27 (ix), a
                                   3667 ;video.c:301: color = (line & (0x80 >> bit)) ? textcolor : textbgcolor;
    000011A1 DD 46 FE         [19] 3668 	ld	b, -2 (ix)
    000011A4 11 80 00         [10] 3669 	ld	de, #0x0080
    000011A7 04               [ 4] 3670 	inc	b
    000011A8 18 04            [12] 3671 	jr	00354$
    000011AA                       3672 00353$:
    000011AA CB 2A            [ 8] 3673 	sra	d
    000011AC CB 1B            [ 8] 3674 	rr	e
    000011AE                       3675 00354$:
    000011AE 10 FA            [13] 3676 	djnz	00353$
    000011B0 DD 7E F0         [19] 3677 	ld	a, -16 (ix)
    000011B3 A3               [ 4] 3678 	and	a, e
    000011B4 DD 77 F6         [19] 3679 	ld	-10 (ix), a
    000011B7 DD 36 F7 00      [19] 3680 	ld	-9 (ix), #0x00
    000011BB AF               [ 4] 3681 	xor	a, a
    000011BC DD B6 F6         [19] 3682 	or	a, -10 (ix)
    000011BF 28 06            [12] 3683 	jr	Z, 00153$
    000011C1 2Ar00r00         [16] 3684 	ld	hl, (_textcolor)
    000011C4 E3               [19] 3685 	ex	(sp), hl
    000011C5 18 04            [12] 3686 	jr	00154$
    000011C7                       3687 00153$:
    000011C7 2Ar02r00         [16] 3688 	ld	hl, (_textbgcolor)
    000011CA E3               [19] 3689 	ex	(sp), hl
    000011CB                       3690 00154$:
    000011CB DD 7E E2         [19] 3691 	ld	a, -30 (ix)
    000011CE DD 77 F5         [19] 3692 	ld	-11 (ix), a
    000011D1 DD 7E E3         [19] 3693 	ld	a, -29 (ix)
    000011D4 DD 77 F6         [19] 3694 	ld	-10 (ix), a
                                   3695 ;video.c:303: while(VGA_REG_STAT & 0x01);
    000011D7                       3696 00124$:
    000011D7 3A 05 C0         [13] 3697 	ld	a, (#0xc005)
    000011DA 0F               [ 4] 3698 	rrca
    000011DB 38 FA            [12] 3699 	jr	C, 00124$
                                   3700 ;video.c:304: VIDEO_REG_X_L = (uint8_t)(current_x & 0xFF);
    000011DD DD 7E E4         [19] 3701 	ld	a, -28 (ix)
    000011E0 21 00 C0         [10] 3702 	ld	hl, #0xc000
    000011E3 77               [ 7] 3703 	ld	(hl), a
                                   3704 ;video.c:305: VIDEO_REG_X_H = (uint8_t)((current_x >> 8) & 0x03);
    000011E4 DD 7E E5         [19] 3705 	ld	a, -27 (ix)
    000011E7 DD 77 F7         [19] 3706 	ld	-9 (ix), a
    000011EA E6 03            [ 7] 3707 	and	a, #0x03
    000011EC DD 77 F7         [19] 3708 	ld	-9 (ix), a
    000011EF 2E 01            [ 7] 3709 	ld	l, #0x01
    000011F1 DD 7E F7         [19] 3710 	ld	a, -9 (ix)
    000011F4 77               [ 7] 3711 	ld	(hl), a
                                   3712 ;video.c:307: VIDEO_REG_DATA_L = (uint8_t)(color & 0xFF);
    000011F5 DD 7E F5         [19] 3713 	ld	a, -11 (ix)
    000011F8 2E 04            [ 7] 3714 	ld	l, #0x04
    000011FA 77               [ 7] 3715 	ld	(hl), a
                                   3716 ;video.c:308: VIDEO_REG_DATA_H = (uint8_t)(color >> 8);
    000011FB DD 7E F6         [19] 3717 	ld	a, -10 (ix)
    000011FE 2E 05            [ 7] 3718 	ld	l, #0x05
    00001200 77               [ 7] 3719 	ld	(hl), a
                                   3720 ;video.c:297: for (bit = 0; bit < 8; bit++) {
    00001201 DD 34 FE         [23] 3721 	inc	-2 (ix)
    00001204 DD 7E FE         [19] 3722 	ld	a, -2 (ix)
    00001207 D6 08            [ 7] 3723 	sub	a, #0x08
    00001209 DAr69r11         [10] 3724 	jp	C, 00142$
    0000120C                       3725 00146$:
                                   3726 ;video.c:292: for (k = 0; k < w_bytes; k++) {
    0000120C DD 34 FC         [23] 3727 	inc	-4 (ix)
    0000120F C2rEAr10         [10] 3728 	jp	NZ, 00145$
    00001212 DD 34 FD         [23] 3729 	inc	-3 (ix)
    00001215 C3rEAr10         [10] 3730 	jp	00145$
    00001218                       3731 00149$:
                                   3732 ;video.c:285: for (i = 0; i < height; i++) {
    00001218 DD 34 FA         [23] 3733 	inc	-6 (ix)
    0000121B C2r9Cr10         [10] 3734 	jp	NZ, 00148$
    0000121E DD 34 FB         [23] 3735 	inc	-5 (ix)
    00001221 C3r9Cr10         [10] 3736 	jp	00148$
    00001224                       3737 00132$:
                                   3738 ;video.c:314: return width * textsize;
    00001224 3Ar15r00         [13] 3739 	ld	a, (_textsize)
    00001227 16 00            [ 7] 3740 	ld	d, #0x00
    00001229 5F               [ 4] 3741 	ld	e, a
    0000122A DD 6E E6         [19] 3742 	ld	l, -26 (ix)
    0000122D 26 00            [ 7] 3743 	ld	h, #0x00
    0000122F CDr00r00         [17] 3744 	call	__mulint
    00001232                       3745 00150$:
                                   3746 ;video.c:315: }
    00001232 DD F9            [10] 3747 	ld	sp, ix
    00001234 DD E1            [14] 3748 	pop	ix
    00001236 E1               [10] 3749 	pop	hl
    00001237 F1               [10] 3750 	pop	af
    00001238 F1               [10] 3751 	pop	af
    00001239 E9               [ 4] 3752 	jp	(hl)
                                   3753 ;video.c:321: void vga_printAt(const char *str, int16_t x, int16_t y, uint16_t color, uint16_t bg, uint8_t font) {
                                   3754 ;	---------------------------------
                                   3755 ; Function vga_printAt
                                   3756 ; ---------------------------------
    0000123A                       3757 _vga_printAt::
    0000123A DD E5            [15] 3758 	push	ix
    0000123C DD 21 00 00      [14] 3759 	ld	ix,#0
    00001240 DD 39            [15] 3760 	add	ix,sp
    00001242 FD 21 F4 FF      [14] 3761 	ld	iy, #-12
    00001246 FD 39            [15] 3762 	add	iy, sp
    00001248 FD F9            [10] 3763 	ld	sp, iy
    0000124A DD 75 FE         [19] 3764 	ld	-2 (ix), l
    0000124D DD 74 FF         [19] 3765 	ld	-1 (ix), h
    00001250 33               [ 6] 3766 	inc	sp
    00001251 33               [ 6] 3767 	inc	sp
    00001252 D5               [11] 3768 	push	de
                                   3769 ;video.c:325: textcolor = color;
    00001253 DD 6E 06         [19] 3770 	ld	l, 6 (ix)
    00001256 DD 66 07         [19] 3771 	ld	h, 7 (ix)
    00001259 22r00r00         [16] 3772 	ld	(_textcolor), hl
                                   3773 ;video.c:326: textbgcolor = bg;
    0000125C DD 6E 08         [19] 3774 	ld	l, 8 (ix)
    0000125F DD 66 09         [19] 3775 	ld	h, 9 (ix)
    00001262 22r02r00         [16] 3776 	ld	(_textbgcolor), hl
                                   3777 ;video.c:330: while (*str) {
    00001265                       3778 00106$:
    00001265 DD 6E FE         [19] 3779 	ld	l, -2 (ix)
    00001268 DD 66 FF         [19] 3780 	ld	h, -1 (ix)
    0000126B 7E               [ 7] 3781 	ld	a, (hl)
    0000126C DD 77 FD         [19] 3782 	ld	-3 (ix), a
    0000126F B7               [ 4] 3783 	or	a, a
    00001270 CAr0Cr13         [10] 3784 	jp	Z, 00109$
                                   3785 ;video.c:333: int charWidth = vga_drawChar((unsigned int)*str, curX, y, font);
    00001273 DD 5E 0A         [19] 3786 	ld	e, 10 (ix)
    00001276 16 00            [ 7] 3787 	ld	d, #0x00
    00001278 DD 4E 04         [19] 3788 	ld	c, 4 (ix)
    0000127B DD 46 05         [19] 3789 	ld	b, 5 (ix)
    0000127E DD 7E F4         [19] 3790 	ld	a, -12 (ix)
    00001281 DD 77 F6         [19] 3791 	ld	-10 (ix), a
    00001284 DD 7E F5         [19] 3792 	ld	a, -11 (ix)
    00001287 DD 77 F7         [19] 3793 	ld	-9 (ix), a
    0000128A DD 6E FD         [19] 3794 	ld	l, -3 (ix)
    0000128D 26 00            [ 7] 3795 	ld	h, #0x00
    0000128F D5               [11] 3796 	push	de
    00001290 C5               [11] 3797 	push	bc
    00001291 DD 5E F6         [19] 3798 	ld	e, -10 (ix)
    00001294 DD 56 F7         [19] 3799 	ld	d, -9 (ix)
    00001297 CDrF0r0D         [17] 3800 	call	_vga_drawChar
    0000129A DD 73 F8         [19] 3801 	ld	-8 (ix), e
    0000129D DD 72 F9         [19] 3802 	ld	-7 (ix), d
    000012A0 DD 7E F8         [19] 3803 	ld	a, -8 (ix)
    000012A3 DD 77 FA         [19] 3804 	ld	-6 (ix), a
    000012A6 DD 7E F9         [19] 3805 	ld	a, -7 (ix)
    000012A9 DD 77 FB         [19] 3806 	ld	-5 (ix), a
                                   3807 ;video.c:337: str++;
    000012AC DD 7E FE         [19] 3808 	ld	a, -2 (ix)
    000012AF C6 01            [ 7] 3809 	add	a, #0x01
    000012B1 DD 77 FC         [19] 3810 	ld	-4 (ix), a
    000012B4 DD 7E FF         [19] 3811 	ld	a, -1 (ix)
    000012B7 CE 00            [ 7] 3812 	adc	a, #0x00
    000012B9 DD 77 FD         [19] 3813 	ld	-3 (ix), a
                                   3814 ;video.c:336: if (charWidth == 0 && *str != ' ') {
    000012BC DD 7E F9         [19] 3815 	ld	a, -7 (ix)
    000012BF DD B6 F8         [19] 3816 	or	a, -8 (ix)
    000012C2 20 19            [12] 3817 	jr	NZ, 00102$
    000012C4 DD 6E FE         [19] 3818 	ld	l, -2 (ix)
    000012C7 DD 66 FF         [19] 3819 	ld	h, -1 (ix)
    000012CA 7E               [ 7] 3820 	ld	a, (hl)
    000012CB D6 20            [ 7] 3821 	sub	a, #0x20
    000012CD 28 0E            [12] 3822 	jr	Z, 00102$
                                   3823 ;video.c:337: str++;
    000012CF DD 7E FC         [19] 3824 	ld	a, -4 (ix)
    000012D2 DD 77 FE         [19] 3825 	ld	-2 (ix), a
    000012D5 DD 7E FD         [19] 3826 	ld	a, -3 (ix)
    000012D8 DD 77 FF         [19] 3827 	ld	-1 (ix), a
                                   3828 ;video.c:338: continue;
    000012DB 18 88            [12] 3829 	jr	00106$
    000012DD                       3830 00102$:
                                   3831 ;video.c:341: curX += charWidth;
    000012DD DD 7E FA         [19] 3832 	ld	a, -6 (ix)
    000012E0 DD 86 F6         [19] 3833 	add	a, -10 (ix)
    000012E3 4F               [ 4] 3834 	ld	c, a
    000012E4 DD 7E FB         [19] 3835 	ld	a, -5 (ix)
    000012E7 DD 8E F7         [19] 3836 	adc	a, -9 (ix)
    000012EA DD 71 F4         [19] 3837 	ld	-12 (ix), c
    000012ED DD 77 F5         [19] 3838 	ld	-11 (ix), a
                                   3839 ;video.c:342: str++;
    000012F0 DD 7E FC         [19] 3840 	ld	a, -4 (ix)
    000012F3 DD 77 FE         [19] 3841 	ld	-2 (ix), a
    000012F6 DD 7E FD         [19] 3842 	ld	a, -3 (ix)
    000012F9 DD 77 FF         [19] 3843 	ld	-1 (ix), a
                                   3844 ;video.c:346: if (curX > 635) break; 
    000012FC C1               [10] 3845 	pop	bc
    000012FD C5               [11] 3846 	push	bc
    000012FE 3E 7B            [ 7] 3847 	ld	a, #0x7b
    00001300 B9               [ 4] 3848 	cp	a, c
    00001301 3E 02            [ 7] 3849 	ld	a, #0x02
    00001303 98               [ 4] 3850 	sbc	a, b
    00001304 E2r09r13         [10] 3851 	jp	PO, 00140$
    00001307 EE 80            [ 7] 3852 	xor	a, #0x80
    00001309                       3853 00140$:
    00001309 F2r65r12         [10] 3854 	jp	P, 00106$
    0000130C                       3855 00109$:
                                   3856 ;video.c:348: }
    0000130C DD F9            [10] 3857 	ld	sp, ix
    0000130E DD E1            [14] 3858 	pop	ix
    00001310 E1               [10] 3859 	pop	hl
    00001311 F1               [10] 3860 	pop	af
    00001312 F1               [10] 3861 	pop	af
    00001313 F1               [10] 3862 	pop	af
    00001314 33               [ 6] 3863 	inc	sp
    00001315 E9               [ 4] 3864 	jp	(hl)
                                   3865 ;video.c:350: void vga_drawFastHLine(int16_t x, int16_t y, int16_t w, uint16_t color) {
                                   3866 ;	---------------------------------
                                   3867 ; Function vga_drawFastHLine
                                   3868 ; ---------------------------------
    00001316                       3869 _vga_drawFastHLine::
    00001316 DD E5            [15] 3870 	push	ix
    00001318 DD 21 00 00      [14] 3871 	ld	ix,#0
    0000131C DD 39            [15] 3872 	add	ix,sp
    0000131E FD 21 F8 FF      [14] 3873 	ld	iy, #-8
    00001322 FD 39            [15] 3874 	add	iy, sp
    00001324 FD F9            [10] 3875 	ld	sp, iy
    00001326 DD 75 FC         [19] 3876 	ld	-4 (ix), l
    00001329 DD 74 FD         [19] 3877 	ld	-3 (ix), h
                                   3878 ;video.c:351: if (w < 0) { x += w; w = -w; }
    0000132C DD 4E 04         [19] 3879 	ld	c, 4 (ix)
    0000132F DD 46 05         [19] 3880 	ld	b, 5 (ix)
    00001332 CB 78            [ 8] 3881 	bit	7, b
    00001334 28 20            [12] 3882 	jr	Z, 00103$
    00001336 DD 7E FC         [19] 3883 	ld	a, -4 (ix)
    00001339 DD 86 04         [19] 3884 	add	a, 4 (ix)
    0000133C DD 77 FC         [19] 3885 	ld	-4 (ix), a
    0000133F DD 7E FD         [19] 3886 	ld	a, -3 (ix)
    00001342 DD 8E 05         [19] 3887 	adc	a, 5 (ix)
    00001345 DD 77 FD         [19] 3888 	ld	-3 (ix), a
    00001348 AF               [ 4] 3889 	xor	a, a
    00001349 DD 96 04         [19] 3890 	sub	a, 4 (ix)
    0000134C DD 77 04         [19] 3891 	ld	4 (ix), a
    0000134F 9F               [ 4] 3892 	sbc	a, a
    00001350 DD 96 05         [19] 3893 	sub	a, 5 (ix)
    00001353 DD 77 05         [19] 3894 	ld	5 (ix), a
                                   3895 ;video.c:354: while(VGA_REG_STAT & 0x01);
    00001356                       3896 00103$:
    00001356 3A 05 C0         [13] 3897 	ld	a, (#0xc005)
    00001359 0F               [ 4] 3898 	rrca
    0000135A 38 FA            [12] 3899 	jr	C, 00103$
                                   3900 ;video.c:355: VIDEO_REG_Y_L = (uint8_t)(y & 0xFF);
    0000135C 7B               [ 4] 3901 	ld	a, e
    0000135D 21 02 C0         [10] 3902 	ld	hl, #0xc002
    00001360 77               [ 7] 3903 	ld	(hl), a
                                   3904 ;video.c:356: VIDEO_REG_Y_H = (uint8_t)((y >> 8) & 0x03);
    00001361 7A               [ 4] 3905 	ld	a, d
    00001362 E6 03            [ 7] 3906 	and	a, #0x03
    00001364 2E 03            [ 7] 3907 	ld	l, #0x03
    00001366 77               [ 7] 3908 	ld	(hl), a
                                   3909 ;video.c:358: uint8_t color_lo = (uint8_t)(color & 0xFF);
    00001367 DD 7E 06         [19] 3910 	ld	a, 6 (ix)
    0000136A DD 77 F8         [19] 3911 	ld	-8 (ix), a
                                   3912 ;video.c:359: uint8_t color_hi = (uint8_t)(color >> 8);
    0000136D DD 7E 07         [19] 3913 	ld	a, 7 (ix)
    00001370 DD 77 F9         [19] 3914 	ld	-7 (ix), a
                                   3915 ;video.c:361: for (int16_t i = 0; i < w; i++) {
    00001373 AF               [ 4] 3916 	xor	a, a
    00001374 DD 77 FE         [19] 3917 	ld	-2 (ix), a
    00001377 DD 77 FF         [19] 3918 	ld	-1 (ix), a
    0000137A                       3919 00115$:
    0000137A DD 7E FE         [19] 3920 	ld	a, -2 (ix)
    0000137D DD 96 04         [19] 3921 	sub	a, 4 (ix)
    00001380 DD 7E FF         [19] 3922 	ld	a, -1 (ix)
    00001383 DD 9E 05         [19] 3923 	sbc	a, 5 (ix)
    00001386 E2r8Br13         [10] 3924 	jp	PO, 00177$
    00001389 EE 80            [ 7] 3925 	xor	a, #0x80
    0000138B                       3926 00177$:
    0000138B F2rDBr13         [10] 3927 	jp	P, 00116$
                                   3928 ;video.c:362: int16_t curX = x + i;
    0000138E DD 7E FC         [19] 3929 	ld	a, -4 (ix)
    00001391 DD 86 FE         [19] 3930 	add	a, -2 (ix)
    00001394 DD 77 FA         [19] 3931 	ld	-6 (ix), a
    00001397 DD 7E FD         [19] 3932 	ld	a, -3 (ix)
    0000139A DD 8E FF         [19] 3933 	adc	a, -1 (ix)
    0000139D DD 77 FB         [19] 3934 	ld	-5 (ix), a
                                   3935 ;video.c:363: if (curX < 0 || curX >= 640) continue; // Clipping base
    000013A0 E1               [10] 3936 	pop	hl
    000013A1 C1               [10] 3937 	pop	bc
    000013A2 C5               [11] 3938 	push	bc
    000013A3 E5               [11] 3939 	push	hl
    000013A4 CB 78            [ 8] 3940 	bit	7, b
    000013A6 20 29            [12] 3941 	jr	NZ, 00112$
    000013A8 79               [ 4] 3942 	ld	a, c
    000013A9 D6 80            [ 7] 3943 	sub	a, #0x80
    000013AB 78               [ 4] 3944 	ld	a, b
    000013AC DE 02            [ 7] 3945 	sbc	a, #0x02
    000013AE 30 21            [12] 3946 	jr	NC, 00112$
                                   3947 ;video.c:365: while(VGA_REG_STAT & 0x01);
    000013B0                       3948 00109$:
    000013B0 3A 05 C0         [13] 3949 	ld	a, (#0xc005)
    000013B3 0F               [ 4] 3950 	rrca
    000013B4 38 FA            [12] 3951 	jr	C, 00109$
                                   3952 ;video.c:366: VIDEO_REG_X_L = (uint8_t)(curX & 0xFF);
    000013B6 DD 7E FA         [19] 3953 	ld	a, -6 (ix)
    000013B9 21 00 C0         [10] 3954 	ld	hl, #0xc000
    000013BC 77               [ 7] 3955 	ld	(hl), a
                                   3956 ;video.c:367: VIDEO_REG_X_H = (uint8_t)((curX >> 8) & 0x03);
    000013BD DD 7E FB         [19] 3957 	ld	a, -5 (ix)
    000013C0 E6 03            [ 7] 3958 	and	a, #0x03
    000013C2 2E 01            [ 7] 3959 	ld	l, #0x01
    000013C4 77               [ 7] 3960 	ld	(hl), a
                                   3961 ;video.c:369: VIDEO_REG_DATA_L = color_lo;
    000013C5 2E 04            [ 7] 3962 	ld	l, #0x04
    000013C7 DD 7E F8         [19] 3963 	ld	a, -8 (ix)
    000013CA 77               [ 7] 3964 	ld	(hl), a
                                   3965 ;video.c:370: VIDEO_REG_DATA_H = color_hi;
    000013CB 2E 05            [ 7] 3966 	ld	l, #0x05
    000013CD DD 7E F9         [19] 3967 	ld	a, -7 (ix)
    000013D0 77               [ 7] 3968 	ld	(hl), a
    000013D1                       3969 00112$:
                                   3970 ;video.c:361: for (int16_t i = 0; i < w; i++) {
    000013D1 DD 34 FE         [23] 3971 	inc	-2 (ix)
    000013D4 20 A4            [12] 3972 	jr	NZ, 00115$
    000013D6 DD 34 FF         [23] 3973 	inc	-1 (ix)
    000013D9 18 9F            [12] 3974 	jr	00115$
    000013DB                       3975 00116$:
                                   3976 ;video.c:372: }
    000013DB DD F9            [10] 3977 	ld	sp, ix
    000013DD DD E1            [14] 3978 	pop	ix
    000013DF E1               [10] 3979 	pop	hl
    000013E0 F1               [10] 3980 	pop	af
    000013E1 F1               [10] 3981 	pop	af
    000013E2 E9               [ 4] 3982 	jp	(hl)
                                   3983 ;video.c:374: void vga_drawFastVLine(int16_t x, int16_t y, int16_t h, uint16_t color) {
                                   3984 ;	---------------------------------
                                   3985 ; Function vga_drawFastVLine
                                   3986 ; ---------------------------------
    000013E3                       3987 _vga_drawFastVLine::
    000013E3 DD E5            [15] 3988 	push	ix
    000013E5 DD 21 00 00      [14] 3989 	ld	ix,#0
    000013E9 DD 39            [15] 3990 	add	ix,sp
    000013EB F5               [11] 3991 	push	af
    000013EC F5               [11] 3992 	push	af
    000013ED 4D               [ 4] 3993 	ld	c, l
    000013EE 44               [ 4] 3994 	ld	b, h
    000013EF DD 73 FE         [19] 3995 	ld	-2 (ix), e
    000013F2 DD 72 FF         [19] 3996 	ld	-1 (ix), d
                                   3997 ;video.c:375: if (h <= 0) return;
    000013F5 DD 5E 04         [19] 3998 	ld	e, 4 (ix)
    000013F8 DD 56 05         [19] 3999 	ld	d, 5 (ix)
    000013FB AF               [ 4] 4000 	xor	a, a
    000013FC BB               [ 4] 4001 	cp	a, e
    000013FD 9A               [ 4] 4002 	sbc	a, d
    000013FE E2r03r14         [10] 4003 	jp	PO, 00185$
    00001401 EE 80            [ 7] 4004 	xor	a, #0x80
    00001403                       4005 00185$:
    00001403 FAr08r14         [10] 4006 	jp	M, 00102$
    00001406 18 76            [12] 4007 	jr	00119$
    00001408                       4008 00102$:
                                   4009 ;video.c:376: if (x < 0 || x >= 640) return; // Clipping X
    00001408 59               [ 4] 4010 	ld	e, c
    00001409 50               [ 4] 4011 	ld	d, b
    0000140A CB 7A            [ 8] 4012 	bit	7, d
    0000140C 20 70            [12] 4013 	jr	NZ, 00119$
    0000140E 7B               [ 4] 4014 	ld	a, e
    0000140F D6 80            [ 7] 4015 	sub	a, #0x80
    00001411 7A               [ 4] 4016 	ld	a, d
    00001412 DE 02            [ 7] 4017 	sbc	a, #0x02
                                   4018 ;video.c:379: while(VGA_REG_STAT & 0x01);
    00001414 30 68            [12] 4019 	jr	NC, 00119$
    00001416                       4020 00106$:
    00001416 3A 05 C0         [13] 4021 	ld	a, (#0xc005)
    00001419 0F               [ 4] 4022 	rrca
    0000141A 38 FA            [12] 4023 	jr	C, 00106$
                                   4024 ;video.c:380: VIDEO_REG_X_L = (uint8_t)(x & 0xFF);
    0000141C 79               [ 4] 4025 	ld	a, c
    0000141D 21 00 C0         [10] 4026 	ld	hl, #0xc000
    00001420 77               [ 7] 4027 	ld	(hl), a
                                   4028 ;video.c:381: VIDEO_REG_X_H = (uint8_t)((x >> 8) & 0x03);
    00001421 78               [ 4] 4029 	ld	a, b
    00001422 E6 03            [ 7] 4030 	and	a, #0x03
    00001424 2E 01            [ 7] 4031 	ld	l, #0x01
    00001426 77               [ 7] 4032 	ld	(hl), a
                                   4033 ;video.c:383: uint8_t color_lo = (uint8_t)(color & 0xFF);
    00001427 DD 7E 06         [19] 4034 	ld	a, 6 (ix)
    0000142A DD 77 FC         [19] 4035 	ld	-4 (ix), a
                                   4036 ;video.c:384: uint8_t color_hi = (uint8_t)(color >> 8);
    0000142D DD 7E 07         [19] 4037 	ld	a, 7 (ix)
    00001430 DD 77 FD         [19] 4038 	ld	-3 (ix), a
                                   4039 ;video.c:386: for (int16_t i = 0; i < h; i++) {
    00001433 01 00 00         [10] 4040 	ld	bc, #0x0000
    00001436                       4041 00118$:
    00001436 79               [ 4] 4042 	ld	a, c
    00001437 DD 96 04         [19] 4043 	sub	a, 4 (ix)
    0000143A 78               [ 4] 4044 	ld	a, b
    0000143B DD 9E 05         [19] 4045 	sbc	a, 5 (ix)
    0000143E E2r43r14         [10] 4046 	jp	PO, 00188$
    00001441 EE 80            [ 7] 4047 	xor	a, #0x80
    00001443                       4048 00188$:
    00001443 F2r7Er14         [10] 4049 	jp	P, 00119$
                                   4050 ;video.c:387: int16_t curY = y + i;
    00001446 DD 7E FE         [19] 4051 	ld	a, -2 (ix)
    00001449 81               [ 4] 4052 	add	a, c
    0000144A 5F               [ 4] 4053 	ld	e, a
    0000144B DD 7E FF         [19] 4054 	ld	a, -1 (ix)
    0000144E 88               [ 4] 4055 	adc	a, b
    0000144F 57               [ 4] 4056 	ld	d, a
                                   4057 ;video.c:388: if (curY < 0 || curY >= 480) continue; // Clipping Y
    00001450 6B               [ 4] 4058 	ld	l, e
    00001451 62               [ 4] 4059 	ld	h, d
    00001452 CB 7C            [ 8] 4060 	bit	7, h
    00001454 20 25            [12] 4061 	jr	NZ, 00115$
    00001456 7D               [ 4] 4062 	ld	a, l
    00001457 D6 E0            [ 7] 4063 	sub	a, #0xe0
    00001459 7C               [ 4] 4064 	ld	a, h
    0000145A DE 01            [ 7] 4065 	sbc	a, #0x01
    0000145C 30 1D            [12] 4066 	jr	NC, 00115$
                                   4067 ;video.c:391: while(VGA_REG_STAT & 0x01);
    0000145E                       4068 00112$:
    0000145E 3A 05 C0         [13] 4069 	ld	a, (#0xc005)
    00001461 0F               [ 4] 4070 	rrca
    00001462 38 FA            [12] 4071 	jr	C, 00112$
                                   4072 ;video.c:394: VIDEO_REG_Y_L = (uint8_t)(curY & 0xFF);
    00001464 7B               [ 4] 4073 	ld	a, e
    00001465 21 02 C0         [10] 4074 	ld	hl, #0xc002
    00001468 77               [ 7] 4075 	ld	(hl), a
                                   4076 ;video.c:395: VIDEO_REG_Y_H = (uint8_t)((curY >> 8) & 0x03);
    00001469 7A               [ 4] 4077 	ld	a, d
    0000146A E6 03            [ 7] 4078 	and	a, #0x03
    0000146C 2E 03            [ 7] 4079 	ld	l, #0x03
    0000146E 77               [ 7] 4080 	ld	(hl), a
                                   4081 ;video.c:398: VIDEO_REG_DATA_L = color_lo;
    0000146F 2E 04            [ 7] 4082 	ld	l, #0x04
    00001471 DD 7E FC         [19] 4083 	ld	a, -4 (ix)
    00001474 77               [ 7] 4084 	ld	(hl), a
                                   4085 ;video.c:399: VIDEO_REG_DATA_H = color_hi;
    00001475 2E 05            [ 7] 4086 	ld	l, #0x05
    00001477 DD 7E FD         [19] 4087 	ld	a, -3 (ix)
    0000147A 77               [ 7] 4088 	ld	(hl), a
    0000147B                       4089 00115$:
                                   4090 ;video.c:386: for (int16_t i = 0; i < h; i++) {
    0000147B 03               [ 6] 4091 	inc	bc
    0000147C 18 B8            [12] 4092 	jr	00118$
    0000147E                       4093 00119$:
                                   4094 ;video.c:401: }
    0000147E DD F9            [10] 4095 	ld	sp, ix
    00001480 DD E1            [14] 4096 	pop	ix
    00001482 E1               [10] 4097 	pop	hl
    00001483 F1               [10] 4098 	pop	af
    00001484 F1               [10] 4099 	pop	af
    00001485 E9               [ 4] 4100 	jp	(hl)
                                   4101 ;video.c:407: void vga_drawRect(int16_t x, int16_t y, int16_t w, int16_t h, uint16_t color) {
                                   4102 ;	---------------------------------
                                   4103 ; Function vga_drawRect
                                   4104 ; ---------------------------------
    00001486                       4105 _vga_drawRect::
    00001486 DD E5            [15] 4106 	push	ix
    00001488 DD 21 00 00      [14] 4107 	ld	ix,#0
    0000148C DD 39            [15] 4108 	add	ix,sp
    0000148E F5               [11] 4109 	push	af
    0000148F 4D               [ 4] 4110 	ld	c, l
    00001490 44               [ 4] 4111 	ld	b, h
    00001491 33               [ 6] 4112 	inc	sp
    00001492 33               [ 6] 4113 	inc	sp
    00001493 D5               [11] 4114 	push	de
                                   4115 ;video.c:408: if (w <= 0 || h <= 0) return;
    00001494 DD 5E 04         [19] 4116 	ld	e, 4 (ix)
    00001497 DD 56 05         [19] 4117 	ld	d, 5 (ix)
    0000149A AF               [ 4] 4118 	xor	a, a
    0000149B BB               [ 4] 4119 	cp	a, e
    0000149C 9A               [ 4] 4120 	sbc	a, d
    0000149D E2rA2r14         [10] 4121 	jp	PO, 00113$
    000014A0 EE 80            [ 7] 4122 	xor	a, #0x80
    000014A2                       4123 00113$:
    000014A2 F2r31r15         [10] 4124 	jp	P, 00104$
    000014A5 DD 5E 06         [19] 4125 	ld	e, 6 (ix)
    000014A8 DD 56 07         [19] 4126 	ld	d, 7 (ix)
    000014AB AF               [ 4] 4127 	xor	a, a
    000014AC BB               [ 4] 4128 	cp	a, e
    000014AD 9A               [ 4] 4129 	sbc	a, d
    000014AE E2rB3r14         [10] 4130 	jp	PO, 00114$
    000014B1 EE 80            [ 7] 4131 	xor	a, #0x80
    000014B3                       4132 00114$:
    000014B3 FArB8r14         [10] 4133 	jp	M, 00102$
    000014B6 18 79            [12] 4134 	jr	00104$
    000014B8                       4135 00102$:
                                   4136 ;video.c:411: vga_drawFastHLine(x, y, w, color);             // Lato superiore
    000014B8 C5               [11] 4137 	push	bc
    000014B9 DD 6E 08         [19] 4138 	ld	l, 8 (ix)
    000014BC DD 66 09         [19] 4139 	ld	h, 9 (ix)
    000014BF E5               [11] 4140 	push	hl
    000014C0 DD 6E 04         [19] 4141 	ld	l, 4 (ix)
    000014C3 DD 66 05         [19] 4142 	ld	h, 5 (ix)
    000014C6 E5               [11] 4143 	push	hl
    000014C7 DD 5E FE         [19] 4144 	ld	e, -2 (ix)
    000014CA DD 56 FF         [19] 4145 	ld	d, -1 (ix)
    000014CD 69               [ 4] 4146 	ld	l, c
    000014CE 60               [ 4] 4147 	ld	h, b
    000014CF CDr16r13         [17] 4148 	call	_vga_drawFastHLine
    000014D2 C1               [10] 4149 	pop	bc
                                   4150 ;video.c:412: vga_drawFastHLine(x, y + h - 1, w, color);     // Lato inferiore
    000014D3 DD 7E 06         [19] 4151 	ld	a, 6 (ix)
    000014D6 DD 86 FE         [19] 4152 	add	a, -2 (ix)
    000014D9 5F               [ 4] 4153 	ld	e, a
    000014DA DD 7E 07         [19] 4154 	ld	a, 7 (ix)
    000014DD DD 8E FF         [19] 4155 	adc	a, -1 (ix)
    000014E0 57               [ 4] 4156 	ld	d, a
    000014E1 1B               [ 6] 4157 	dec	de
    000014E2 C5               [11] 4158 	push	bc
    000014E3 DD 6E 08         [19] 4159 	ld	l, 8 (ix)
    000014E6 DD 66 09         [19] 4160 	ld	h, 9 (ix)
    000014E9 E5               [11] 4161 	push	hl
    000014EA DD 6E 04         [19] 4162 	ld	l, 4 (ix)
    000014ED DD 66 05         [19] 4163 	ld	h, 5 (ix)
    000014F0 E5               [11] 4164 	push	hl
    000014F1 69               [ 4] 4165 	ld	l, c
    000014F2 60               [ 4] 4166 	ld	h, b
    000014F3 CDr16r13         [17] 4167 	call	_vga_drawFastHLine
    000014F6 C1               [10] 4168 	pop	bc
                                   4169 ;video.c:413: vga_drawFastVLine(x, y, h, color);             // Lato sinistro
    000014F7 C5               [11] 4170 	push	bc
    000014F8 DD 6E 08         [19] 4171 	ld	l, 8 (ix)
    000014FB DD 66 09         [19] 4172 	ld	h, 9 (ix)
    000014FE E5               [11] 4173 	push	hl
    000014FF DD 6E 06         [19] 4174 	ld	l, 6 (ix)
    00001502 DD 66 07         [19] 4175 	ld	h, 7 (ix)
    00001505 E5               [11] 4176 	push	hl
    00001506 DD 5E FE         [19] 4177 	ld	e, -2 (ix)
    00001509 DD 56 FF         [19] 4178 	ld	d, -1 (ix)
    0000150C 69               [ 4] 4179 	ld	l, c
    0000150D 60               [ 4] 4180 	ld	h, b
    0000150E CDrE3r13         [17] 4181 	call	_vga_drawFastVLine
    00001511 C1               [10] 4182 	pop	bc
                                   4183 ;video.c:414: vga_drawFastVLine(x + w - 1, y, h, color);     // Lato destro
    00001512 DD 6E 04         [19] 4184 	ld	l, 4 (ix)
    00001515 DD 66 05         [19] 4185 	ld	h, 5 (ix)
    00001518 09               [11] 4186 	add	hl, bc
    00001519 2B               [ 6] 4187 	dec	hl
    0000151A DD 5E 08         [19] 4188 	ld	e, 8 (ix)
    0000151D DD 56 09         [19] 4189 	ld	d, 9 (ix)
    00001520 D5               [11] 4190 	push	de
    00001521 DD 5E 06         [19] 4191 	ld	e, 6 (ix)
    00001524 DD 56 07         [19] 4192 	ld	d, 7 (ix)
    00001527 D5               [11] 4193 	push	de
    00001528 DD 5E FE         [19] 4194 	ld	e, -2 (ix)
    0000152B DD 56 FF         [19] 4195 	ld	d, -1 (ix)
    0000152E CDrE3r13         [17] 4196 	call	_vga_drawFastVLine
    00001531                       4197 00104$:
                                   4198 ;video.c:415: }
    00001531 DD F9            [10] 4199 	ld	sp, ix
    00001533 DD E1            [14] 4200 	pop	ix
    00001535 E1               [10] 4201 	pop	hl
    00001536 F1               [10] 4202 	pop	af
    00001537 F1               [10] 4203 	pop	af
    00001538 F1               [10] 4204 	pop	af
    00001539 E9               [ 4] 4205 	jp	(hl)
                                   4206 ;video.c:421: void vga_fillCircle(uint16_t x0, uint16_t y0, uint16_t r, uint16_t color) {
                                   4207 ;	---------------------------------
                                   4208 ; Function vga_fillCircle
                                   4209 ; ---------------------------------
    0000153A                       4210 _vga_fillCircle::
    0000153A DD E5            [15] 4211 	push	ix
    0000153C DD 21 00 00      [14] 4212 	ld	ix,#0
    00001540 DD 39            [15] 4213 	add	ix,sp
    00001542 FD 21 F0 FF      [14] 4214 	ld	iy, #-16
    00001546 FD 39            [15] 4215 	add	iy, sp
    00001548 FD F9            [10] 4216 	ld	sp, iy
    0000154A DD 75 F8         [19] 4217 	ld	-8 (ix), l
    0000154D DD 74 F9         [19] 4218 	ld	-7 (ix), h
    00001550 DD 73 F6         [19] 4219 	ld	-10 (ix), e
    00001553 DD 72 F7         [19] 4220 	ld	-9 (ix), d
                                   4221 ;video.c:423: vga_drawFastHLine(x0 - r, y0, 2 * r + 1, color);
    00001556 DD 6E 04         [19] 4222 	ld	l, 4 (ix)
    00001559 DD 66 05         [19] 4223 	ld	h, 5 (ix)
    0000155C 29               [11] 4224 	add	hl, hl
    0000155D 23               [ 6] 4225 	inc	hl
    0000155E DD 7E F8         [19] 4226 	ld	a, -8 (ix)
    00001561 DD 96 04         [19] 4227 	sub	a, 4 (ix)
    00001564 4F               [ 4] 4228 	ld	c, a
    00001565 DD 7E F9         [19] 4229 	ld	a, -7 (ix)
    00001568 DD 9E 05         [19] 4230 	sbc	a, 5 (ix)
    0000156B DD 5E 06         [19] 4231 	ld	e, 6 (ix)
    0000156E DD 56 07         [19] 4232 	ld	d, 7 (ix)
    00001571 D5               [11] 4233 	push	de
    00001572 E5               [11] 4234 	push	hl
    00001573 DD 5E F6         [19] 4235 	ld	e, -10 (ix)
    00001576 DD 56 F7         [19] 4236 	ld	d, -9 (ix)
    00001579 69               [ 4] 4237 	ld	l, c
    0000157A 67               [ 4] 4238 	ld	h, a
    0000157B CDr16r13         [17] 4239 	call	_vga_drawFastHLine
                                   4240 ;video.c:425: int16_t f = 1 - r;
    0000157E 3E 01            [ 7] 4241 	ld	a, #0x01
    00001580 DD 96 04         [19] 4242 	sub	a, 4 (ix)
    00001583 DD 77 FA         [19] 4243 	ld	-6 (ix), a
    00001586 9F               [ 4] 4244 	sbc	a, a
    00001587 DD 96 05         [19] 4245 	sub	a, 5 (ix)
    0000158A DD 77 FB         [19] 4246 	ld	-5 (ix), a
                                   4247 ;video.c:426: int16_t ddF_x = 1;
    0000158D 21 01 00         [10] 4248 	ld	hl, #0x0001
    00001590 E3               [19] 4249 	ex	(sp), hl
                                   4250 ;video.c:427: int16_t ddF_y = -2 * r;
    00001591 DD 4E 04         [19] 4251 	ld	c, 4 (ix)
    00001594 DD 46 05         [19] 4252 	ld	b, 5 (ix)
    00001597 69               [ 4] 4253 	ld	l, c
    00001598 60               [ 4] 4254 	ld	h, b
    00001599 29               [11] 4255 	add	hl, hl
    0000159A 09               [11] 4256 	add	hl, bc
    0000159B 29               [11] 4257 	add	hl, hl
    0000159C 09               [11] 4258 	add	hl, bc
    0000159D 29               [11] 4259 	add	hl, hl
    0000159E 09               [11] 4260 	add	hl, bc
    0000159F 29               [11] 4261 	add	hl, hl
    000015A0 09               [11] 4262 	add	hl, bc
    000015A1 29               [11] 4263 	add	hl, hl
    000015A2 09               [11] 4264 	add	hl, bc
    000015A3 29               [11] 4265 	add	hl, hl
    000015A4 09               [11] 4266 	add	hl, bc
    000015A5 29               [11] 4267 	add	hl, hl
    000015A6 09               [11] 4268 	add	hl, bc
    000015A7 29               [11] 4269 	add	hl, hl
    000015A8 09               [11] 4270 	add	hl, bc
    000015A9 29               [11] 4271 	add	hl, hl
    000015AA 09               [11] 4272 	add	hl, bc
    000015AB 29               [11] 4273 	add	hl, hl
    000015AC 09               [11] 4274 	add	hl, bc
    000015AD 29               [11] 4275 	add	hl, hl
    000015AE 09               [11] 4276 	add	hl, bc
    000015AF 29               [11] 4277 	add	hl, hl
    000015B0 09               [11] 4278 	add	hl, bc
    000015B1 29               [11] 4279 	add	hl, hl
    000015B2 09               [11] 4280 	add	hl, bc
    000015B3 29               [11] 4281 	add	hl, hl
    000015B4 09               [11] 4282 	add	hl, bc
    000015B5 29               [11] 4283 	add	hl, hl
    000015B6 DD 75 F2         [19] 4284 	ld	-14 (ix), l
    000015B9 DD 74 F3         [19] 4285 	ld	-13 (ix), h
                                   4286 ;video.c:429: int16_t y = r;
    000015BC DD 7E 04         [19] 4287 	ld	a, 4 (ix)
    000015BF DD 77 FC         [19] 4288 	ld	-4 (ix), a
    000015C2 DD 7E 05         [19] 4289 	ld	a, 5 (ix)
    000015C5 DD 77 FD         [19] 4290 	ld	-3 (ix), a
                                   4291 ;video.c:431: while (x < y) {
    000015C8 AF               [ 4] 4292 	xor	a, a
    000015C9 DD 77 FE         [19] 4293 	ld	-2 (ix), a
    000015CC DD 77 FF         [19] 4294 	ld	-1 (ix), a
    000015CF                       4295 00103$:
    000015CF DD 7E FE         [19] 4296 	ld	a, -2 (ix)
    000015D2 DD 96 FC         [19] 4297 	sub	a, -4 (ix)
    000015D5 DD 7E FF         [19] 4298 	ld	a, -1 (ix)
    000015D8 DD 9E FD         [19] 4299 	sbc	a, -3 (ix)
    000015DB E2rE0r15         [10] 4300 	jp	PO, 00130$
    000015DE EE 80            [ 7] 4301 	xor	a, #0x80
    000015E0                       4302 00130$:
    000015E0 F2rEAr16         [10] 4303 	jp	P, 00106$
                                   4304 ;video.c:432: if (f >= 0) {
    000015E3 DD 46 FB         [19] 4305 	ld	b, -5 (ix)
    000015E6 CB 78            [ 8] 4306 	bit	7, b
    000015E8 20 2B            [12] 4307 	jr	NZ, 00102$
                                   4308 ;video.c:433: y--;
    000015EA DD 6E FC         [19] 4309 	ld	l, -4 (ix)
    000015ED DD 66 FD         [19] 4310 	ld	h, -3 (ix)
    000015F0 2B               [ 6] 4311 	dec	hl
    000015F1 DD 75 FC         [19] 4312 	ld	-4 (ix), l
    000015F4 DD 74 FD         [19] 4313 	ld	-3 (ix), h
                                   4314 ;video.c:434: ddF_y += 2;
    000015F7 E1               [10] 4315 	pop	hl
    000015F8 C1               [10] 4316 	pop	bc
    000015F9 C5               [11] 4317 	push	bc
    000015FA E5               [11] 4318 	push	hl
    000015FB 03               [ 6] 4319 	inc	bc
    000015FC 03               [ 6] 4320 	inc	bc
    000015FD DD 71 F2         [19] 4321 	ld	-14 (ix), c
    00001600 DD 70 F3         [19] 4322 	ld	-13 (ix), b
                                   4323 ;video.c:435: f += ddF_y;
    00001603 DD 7E FA         [19] 4324 	ld	a, -6 (ix)
    00001606 DD 86 F2         [19] 4325 	add	a, -14 (ix)
    00001609 DD 77 FA         [19] 4326 	ld	-6 (ix), a
    0000160C DD 7E FB         [19] 4327 	ld	a, -5 (ix)
    0000160F DD 8E F3         [19] 4328 	adc	a, -13 (ix)
    00001612 DD 77 FB         [19] 4329 	ld	-5 (ix), a
    00001615                       4330 00102$:
                                   4331 ;video.c:437: x++;
    00001615 DD 34 FE         [23] 4332 	inc	-2 (ix)
    00001618 20 03            [12] 4333 	jr	NZ, 00131$
    0000161A DD 34 FF         [23] 4334 	inc	-1 (ix)
    0000161D                       4335 00131$:
                                   4336 ;video.c:438: ddF_x += 2;
    0000161D C1               [10] 4337 	pop	bc
    0000161E C5               [11] 4338 	push	bc
    0000161F 03               [ 6] 4339 	inc	bc
    00001620 03               [ 6] 4340 	inc	bc
    00001621 33               [ 6] 4341 	inc	sp
    00001622 33               [ 6] 4342 	inc	sp
    00001623 C5               [11] 4343 	push	bc
                                   4344 ;video.c:439: f += ddF_x;
    00001624 DD 7E FA         [19] 4345 	ld	a, -6 (ix)
    00001627 DD 86 F0         [19] 4346 	add	a, -16 (ix)
    0000162A DD 77 FA         [19] 4347 	ld	-6 (ix), a
    0000162D DD 7E FB         [19] 4348 	ld	a, -5 (ix)
    00001630 DD 8E F1         [19] 4349 	adc	a, -15 (ix)
    00001633 DD 77 FB         [19] 4350 	ld	-5 (ix), a
                                   4351 ;video.c:443: vga_drawFastHLine(x0 - x, y0 + y, 2 * x + 1, color);
    00001636 DD 6E FE         [19] 4352 	ld	l, -2 (ix)
    00001639 DD 66 FF         [19] 4353 	ld	h, -1 (ix)
    0000163C 29               [11] 4354 	add	hl, hl
    0000163D 23               [ 6] 4355 	inc	hl
    0000163E E5               [11] 4356 	push	hl
    0000163F FD E1            [14] 4357 	pop	iy
    00001641 DD 4E FC         [19] 4358 	ld	c, -4 (ix)
    00001644 DD 46 FD         [19] 4359 	ld	b, -3 (ix)
    00001647 DD 7E F6         [19] 4360 	ld	a, -10 (ix)
    0000164A 81               [ 4] 4361 	add	a, c
    0000164B 5F               [ 4] 4362 	ld	e, a
    0000164C DD 7E F7         [19] 4363 	ld	a, -9 (ix)
    0000164F 88               [ 4] 4364 	adc	a, b
    00001650 57               [ 4] 4365 	ld	d, a
    00001651 DD 7E FE         [19] 4366 	ld	a, -2 (ix)
    00001654 DD 77 F4         [19] 4367 	ld	-12 (ix), a
    00001657 DD 7E FF         [19] 4368 	ld	a, -1 (ix)
    0000165A DD 77 F5         [19] 4369 	ld	-11 (ix), a
    0000165D DD 7E F8         [19] 4370 	ld	a, -8 (ix)
    00001660 DD 96 F4         [19] 4371 	sub	a, -12 (ix)
    00001663 6F               [ 4] 4372 	ld	l, a
    00001664 DD 7E F9         [19] 4373 	ld	a, -7 (ix)
    00001667 DD 9E F5         [19] 4374 	sbc	a, -11 (ix)
    0000166A 67               [ 4] 4375 	ld	h, a
    0000166B E5               [11] 4376 	push	hl
    0000166C C5               [11] 4377 	push	bc
    0000166D FD E5            [15] 4378 	push	iy
    0000166F E5               [11] 4379 	push	hl
    00001670 DD 6E 06         [19] 4380 	ld	l, 6 (ix)
    00001673 DD 66 07         [19] 4381 	ld	h, 7 (ix)
    00001676 E3               [19] 4382 	ex	(sp), hl
    00001677 FD E5            [15] 4383 	push	iy
    00001679 CDr16r13         [17] 4384 	call	_vga_drawFastHLine
    0000167C FD E1            [14] 4385 	pop	iy
    0000167E C1               [10] 4386 	pop	bc
    0000167F E1               [10] 4387 	pop	hl
                                   4388 ;video.c:444: vga_drawFastHLine(x0 - x, y0 - y, 2 * x + 1, color);
    00001680 DD 7E F6         [19] 4389 	ld	a, -10 (ix)
    00001683 91               [ 4] 4390 	sub	a, c
    00001684 5F               [ 4] 4391 	ld	e, a
    00001685 DD 7E F7         [19] 4392 	ld	a, -9 (ix)
    00001688 98               [ 4] 4393 	sbc	a, b
    00001689 57               [ 4] 4394 	ld	d, a
    0000168A C5               [11] 4395 	push	bc
    0000168B E5               [11] 4396 	push	hl
    0000168C DD 6E 06         [19] 4397 	ld	l, 6 (ix)
    0000168F DD 66 07         [19] 4398 	ld	h, 7 (ix)
    00001692 E3               [19] 4399 	ex	(sp), hl
    00001693 FD E5            [15] 4400 	push	iy
    00001695 CDr16r13         [17] 4401 	call	_vga_drawFastHLine
    00001698 C1               [10] 4402 	pop	bc
                                   4403 ;video.c:445: vga_drawFastHLine(x0 - y, y0 + x, 2 * y + 1, color);
    00001699 DD 6E FC         [19] 4404 	ld	l, -4 (ix)
    0000169C DD 66 FD         [19] 4405 	ld	h, -3 (ix)
    0000169F 29               [11] 4406 	add	hl, hl
    000016A0 23               [ 6] 4407 	inc	hl
    000016A1 DD 7E F6         [19] 4408 	ld	a, -10 (ix)
    000016A4 DD 86 F4         [19] 4409 	add	a, -12 (ix)
    000016A7 5F               [ 4] 4410 	ld	e, a
    000016A8 DD 7E F7         [19] 4411 	ld	a, -9 (ix)
    000016AB DD 8E F5         [19] 4412 	adc	a, -11 (ix)
    000016AE 57               [ 4] 4413 	ld	d, a
    000016AF DD 7E F8         [19] 4414 	ld	a, -8 (ix)
    000016B2 91               [ 4] 4415 	sub	a, c
    000016B3 4F               [ 4] 4416 	ld	c, a
    000016B4 DD 7E F9         [19] 4417 	ld	a, -7 (ix)
    000016B7 98               [ 4] 4418 	sbc	a, b
    000016B8 47               [ 4] 4419 	ld	b, a
    000016B9 E5               [11] 4420 	push	hl
    000016BA C5               [11] 4421 	push	bc
    000016BB E5               [11] 4422 	push	hl
    000016BC DD 6E 06         [19] 4423 	ld	l, 6 (ix)
    000016BF DD 66 07         [19] 4424 	ld	h, 7 (ix)
    000016C2 E3               [19] 4425 	ex	(sp), hl
    000016C3 E5               [11] 4426 	push	hl
    000016C4 69               [ 4] 4427 	ld	l, c
    000016C5 60               [ 4] 4428 	ld	h, b
    000016C6 CDr16r13         [17] 4429 	call	_vga_drawFastHLine
    000016C9 C1               [10] 4430 	pop	bc
    000016CA E1               [10] 4431 	pop	hl
                                   4432 ;video.c:446: vga_drawFastHLine(x0 - y, y0 - x, 2 * y + 1, color);
    000016CB DD 7E F6         [19] 4433 	ld	a, -10 (ix)
    000016CE DD 96 F4         [19] 4434 	sub	a, -12 (ix)
    000016D1 5F               [ 4] 4435 	ld	e, a
    000016D2 DD 7E F7         [19] 4436 	ld	a, -9 (ix)
    000016D5 DD 9E F5         [19] 4437 	sbc	a, -11 (ix)
    000016D8 57               [ 4] 4438 	ld	d, a
    000016D9 E5               [11] 4439 	push	hl
    000016DA DD 6E 06         [19] 4440 	ld	l, 6 (ix)
    000016DD DD 66 07         [19] 4441 	ld	h, 7 (ix)
    000016E0 E3               [19] 4442 	ex	(sp), hl
    000016E1 E5               [11] 4443 	push	hl
    000016E2 69               [ 4] 4444 	ld	l, c
    000016E3 60               [ 4] 4445 	ld	h, b
    000016E4 CDr16r13         [17] 4446 	call	_vga_drawFastHLine
    000016E7 C3rCFr15         [10] 4447 	jp	00103$
    000016EA                       4448 00106$:
                                   4449 ;video.c:448: }
    000016EA DD F9            [10] 4450 	ld	sp, ix
    000016EC DD E1            [14] 4451 	pop	ix
    000016EE E1               [10] 4452 	pop	hl
    000016EF F1               [10] 4453 	pop	af
    000016F0 F1               [10] 4454 	pop	af
    000016F1 E9               [ 4] 4455 	jp	(hl)
                                   4456 ;video.c:454: void vga_drawLine(int16_t x1, int16_t y1, int16_t x2, int16_t y2, uint16_t color) {
                                   4457 ;	---------------------------------
                                   4458 ; Function vga_drawLine
                                   4459 ; ---------------------------------
    000016F2                       4460 _vga_drawLine::
    000016F2 DD E5            [15] 4461 	push	ix
    000016F4 DD 21 00 00      [14] 4462 	ld	ix,#0
    000016F8 DD 39            [15] 4463 	add	ix,sp
    000016FA FD 21 F5 FF      [14] 4464 	ld	iy, #-11
    000016FE FD 39            [15] 4465 	add	iy, sp
    00001700 FD F9            [10] 4466 	ld	sp, iy
    00001702 DD 75 FC         [19] 4467 	ld	-4 (ix), l
    00001705 DD 74 FD         [19] 4468 	ld	-3 (ix), h
    00001708 4B               [ 4] 4469 	ld	c, e
    00001709 42               [ 4] 4470 	ld	b, d
                                   4471 ;video.c:457: vga_drawFastVLine(x1, (y1 < y2 ? y1 : y2), abs(y2 - y1) + 1, color);
    0000170A DD 7E 06         [19] 4472 	ld	a, 6 (ix)
    0000170D 91               [ 4] 4473 	sub	a, c
    0000170E 5F               [ 4] 4474 	ld	e, a
    0000170F DD 7E 07         [19] 4475 	ld	a, 7 (ix)
    00001712 98               [ 4] 4476 	sbc	a, b
    00001713 57               [ 4] 4477 	ld	d, a
    00001714 DD 7E 06         [19] 4478 	ld	a, 6 (ix)
    00001717 DD 77 FE         [19] 4479 	ld	-2 (ix), a
    0000171A DD 7E 07         [19] 4480 	ld	a, 7 (ix)
    0000171D DD 77 FF         [19] 4481 	ld	-1 (ix), a
    00001720 DD 73 FA         [19] 4482 	ld	-6 (ix), e
    00001723 DD 72 FB         [19] 4483 	ld	-5 (ix), d
                                   4484 ;video.c:456: if (x1 == x2) {
    00001726 DD 7E 04         [19] 4485 	ld	a, 4 (ix)
    00001729 DD 96 FC         [19] 4486 	sub	a, -4 (ix)
    0000172C 20 40            [12] 4487 	jr	NZ, 00102$
    0000172E DD 7E 05         [19] 4488 	ld	a, 5 (ix)
    00001731 DD 96 FD         [19] 4489 	sub	a, -3 (ix)
    00001734 20 38            [12] 4490 	jr	NZ, 00102$
                                   4491 ;video.c:457: vga_drawFastVLine(x1, (y1 < y2 ? y1 : y2), abs(y2 - y1) + 1, color);
    00001736 DD 6E FA         [19] 4492 	ld	l, -6 (ix)
    00001739 DD 66 FB         [19] 4493 	ld	h, -5 (ix)
    0000173C CDr00r00         [17] 4494 	call	_abs
    0000173F 13               [ 6] 4495 	inc	de
    00001740 79               [ 4] 4496 	ld	a, c
    00001741 DD 96 06         [19] 4497 	sub	a, 6 (ix)
    00001744 78               [ 4] 4498 	ld	a, b
    00001745 DD 9E 07         [19] 4499 	sbc	a, 7 (ix)
    00001748 E2r4Dr17         [10] 4500 	jp	PO, 00214$
    0000174B EE 80            [ 7] 4501 	xor	a, #0x80
    0000174D                       4502 00214$:
    0000174D F2r52r17         [10] 4503 	jp	P, 00120$
    00001750 18 06            [12] 4504 	jr	00121$
    00001752                       4505 00120$:
    00001752 DD 4E FE         [19] 4506 	ld	c, -2 (ix)
    00001755 DD 46 FF         [19] 4507 	ld	b, -1 (ix)
    00001758                       4508 00121$:
    00001758 DD 6E 08         [19] 4509 	ld	l, 8 (ix)
    0000175B DD 66 09         [19] 4510 	ld	h, 9 (ix)
    0000175E E5               [11] 4511 	push	hl
    0000175F D5               [11] 4512 	push	de
    00001760 59               [ 4] 4513 	ld	e, c
    00001761 50               [ 4] 4514 	ld	d, b
    00001762 DD 6E FC         [19] 4515 	ld	l, -4 (ix)
    00001765 DD 66 FD         [19] 4516 	ld	h, -3 (ix)
    00001768 CDrE3r13         [17] 4517 	call	_vga_drawFastVLine
                                   4518 ;video.c:458: return;
    0000176B C3r3Ar19         [10] 4519 	jp	00118$
    0000176E                       4520 00102$:
                                   4521 ;video.c:461: vga_drawFastHLine((x1 < x2 ? x1 : x2), y1, abs(x2 - x1) + 1, color);
    0000176E DD 7E 04         [19] 4522 	ld	a, 4 (ix)
    00001771 DD 96 FC         [19] 4523 	sub	a, -4 (ix)
    00001774 6F               [ 4] 4524 	ld	l, a
    00001775 DD 7E 05         [19] 4525 	ld	a, 5 (ix)
    00001778 DD 9E FD         [19] 4526 	sbc	a, -3 (ix)
    0000177B DD 5E 04         [19] 4527 	ld	e, 4 (ix)
    0000177E DD 56 05         [19] 4528 	ld	d, 5 (ix)
    00001781 DD 75 F8         [19] 4529 	ld	-8 (ix), l
    00001784 DD 77 F9         [19] 4530 	ld	-7 (ix), a
                                   4531 ;video.c:460: if (y1 == y2) {
    00001787 DD 6E 06         [19] 4532 	ld	l, 6 (ix)
    0000178A DD 66 07         [19] 4533 	ld	h, 7 (ix)
    0000178D BF               [ 4] 4534 	cp	a, a
    0000178E ED 42            [15] 4535 	sbc	hl, bc
    00001790 20 46            [12] 4536 	jr	NZ, 00104$
                                   4537 ;video.c:461: vga_drawFastHLine((x1 < x2 ? x1 : x2), y1, abs(x2 - x1) + 1, color);
    00001792 D5               [11] 4538 	push	de
    00001793 DD 6E F8         [19] 4539 	ld	l, -8 (ix)
    00001796 DD 66 F9         [19] 4540 	ld	h, -7 (ix)
    00001799 CDr00r00         [17] 4541 	call	_abs
    0000179C EB               [ 4] 4542 	ex	de, hl
    0000179D 23               [ 6] 4543 	inc	hl
    0000179E D1               [10] 4544 	pop	de
    0000179F DD 75 FE         [19] 4545 	ld	-2 (ix), l
    000017A2 DD 74 FF         [19] 4546 	ld	-1 (ix), h
    000017A5 DD 7E FC         [19] 4547 	ld	a, -4 (ix)
    000017A8 DD 96 04         [19] 4548 	sub	a, 4 (ix)
    000017AB DD 7E FD         [19] 4549 	ld	a, -3 (ix)
    000017AE DD 9E 05         [19] 4550 	sbc	a, 5 (ix)
    000017B1 E2rB6r17         [10] 4551 	jp	PO, 00217$
    000017B4 EE 80            [ 7] 4552 	xor	a, #0x80
    000017B6                       4553 00217$:
    000017B6 F2rC1r17         [10] 4554 	jp	P, 00122$
    000017B9 DD 6E FC         [19] 4555 	ld	l, -4 (ix)
    000017BC DD 66 FD         [19] 4556 	ld	h, -3 (ix)
    000017BF 18 01            [12] 4557 	jr	00123$
    000017C1                       4558 00122$:
    000017C1 EB               [ 4] 4559 	ex	de, hl
    000017C2                       4560 00123$:
    000017C2 DD 5E 08         [19] 4561 	ld	e, 8 (ix)
    000017C5 DD 56 09         [19] 4562 	ld	d, 9 (ix)
    000017C8 D5               [11] 4563 	push	de
    000017C9 DD 5E FE         [19] 4564 	ld	e, -2 (ix)
    000017CC DD 56 FF         [19] 4565 	ld	d, -1 (ix)
    000017CF D5               [11] 4566 	push	de
    000017D0 59               [ 4] 4567 	ld	e, c
    000017D1 50               [ 4] 4568 	ld	d, b
    000017D2 CDr16r13         [17] 4569 	call	_vga_drawFastHLine
                                   4570 ;video.c:462: return;
    000017D5 C3r3Ar19         [10] 4571 	jp	00118$
    000017D8                       4572 00104$:
                                   4573 ;video.c:466: bool steep = abs(y2 - y1) > abs(x2 - x1);
    000017D8 D5               [11] 4574 	push	de
    000017D9 DD 6E FA         [19] 4575 	ld	l, -6 (ix)
    000017DC DD 66 FB         [19] 4576 	ld	h, -5 (ix)
    000017DF CDr00r00         [17] 4577 	call	_abs
    000017E2 DD 73 FA         [19] 4578 	ld	-6 (ix), e
    000017E5 DD 72 FB         [19] 4579 	ld	-5 (ix), d
    000017E8 DD 6E F8         [19] 4580 	ld	l, -8 (ix)
    000017EB DD 66 F9         [19] 4581 	ld	h, -7 (ix)
    000017EE CDr00r00         [17] 4582 	call	_abs
    000017F1 EB               [ 4] 4583 	ex	de, hl
    000017F2 D1               [10] 4584 	pop	de
    000017F3 7D               [ 4] 4585 	ld	a, l
    000017F4 DD 96 FA         [19] 4586 	sub	a, -6 (ix)
    000017F7 7C               [ 4] 4587 	ld	a, h
    000017F8 DD 9E FB         [19] 4588 	sbc	a, -5 (ix)
    000017FB E2r00r18         [10] 4589 	jp	PO, 00218$
    000017FE EE 80            [ 7] 4590 	xor	a, #0x80
    00001800                       4591 00218$:
    00001800 07               [ 4] 4592 	rlca
    00001801 E6 01            [ 7] 4593 	and	a,#0x01
    00001803 6F               [ 4] 4594 	ld	l, a
    00001804 DD 75 F5         [19] 4595 	ld	-11 (ix), l
                                   4596 ;video.c:467: if (steep) {
    00001807 CB 45            [ 8] 4597 	bit	0, l
    00001809 28 20            [12] 4598 	jr	Z, 00106$
                                   4599 ;video.c:469: int16_t t = x1; x1 = y1; y1 = t;
    0000180B DD 7E FC         [19] 4600 	ld	a, -4 (ix)
    0000180E DD 6E FD         [19] 4601 	ld	l, -3 (ix)
    00001811 DD 71 FC         [19] 4602 	ld	-4 (ix), c
    00001814 DD 70 FD         [19] 4603 	ld	-3 (ix), b
    00001817 4F               [ 4] 4604 	ld	c, a
    00001818 45               [ 4] 4605 	ld	b, l
                                   4606 ;video.c:471: t = x2; x2 = y2; y2 = t;
    00001819 DD 7E FE         [19] 4607 	ld	a, -2 (ix)
    0000181C DD 77 04         [19] 4608 	ld	4 (ix), a
    0000181F DD 7E FF         [19] 4609 	ld	a, -1 (ix)
    00001822 DD 77 05         [19] 4610 	ld	5 (ix), a
    00001825 DD 73 06         [19] 4611 	ld	6 (ix), e
    00001828 DD 72 07         [19] 4612 	ld	7 (ix), d
    0000182B                       4613 00106$:
                                   4614 ;video.c:474: if (x1 > x2) {
    0000182B DD 7E 04         [19] 4615 	ld	a, 4 (ix)
    0000182E DD 96 FC         [19] 4616 	sub	a, -4 (ix)
    00001831 DD 7E 05         [19] 4617 	ld	a, 5 (ix)
    00001834 DD 9E FD         [19] 4618 	sbc	a, -3 (ix)
    00001837 E2r3Cr18         [10] 4619 	jp	PO, 00219$
    0000183A EE 80            [ 7] 4620 	xor	a, #0x80
    0000183C                       4621 00219$:
    0000183C F2r65r18         [10] 4622 	jp	P, 00108$
                                   4623 ;video.c:476: int16_t t = x1; x1 = x2; x2 = t;
    0000183F DD 5E FC         [19] 4624 	ld	e, -4 (ix)
    00001842 DD 56 FD         [19] 4625 	ld	d, -3 (ix)
    00001845 DD 7E 04         [19] 4626 	ld	a, 4 (ix)
    00001848 DD 77 FC         [19] 4627 	ld	-4 (ix), a
    0000184B DD 7E 05         [19] 4628 	ld	a, 5 (ix)
    0000184E DD 77 FD         [19] 4629 	ld	-3 (ix), a
    00001851 DD 73 04         [19] 4630 	ld	4 (ix), e
    00001854 DD 72 05         [19] 4631 	ld	5 (ix), d
                                   4632 ;video.c:477: t = y1; y1 = y2; y2 = t;
    00001857 79               [ 4] 4633 	ld	a, c
    00001858 58               [ 4] 4634 	ld	e, b
    00001859 DD 4E 06         [19] 4635 	ld	c, 6 (ix)
    0000185C DD 46 07         [19] 4636 	ld	b, 7 (ix)
    0000185F DD 77 06         [19] 4637 	ld	6 (ix), a
    00001862 DD 73 07         [19] 4638 	ld	7 (ix), e
    00001865                       4639 00108$:
                                   4640 ;video.c:480: int16_t dx = x2 - x1;
    00001865 DD 7E 04         [19] 4641 	ld	a, 4 (ix)
    00001868 DD 96 FC         [19] 4642 	sub	a, -4 (ix)
    0000186B DD 77 F6         [19] 4643 	ld	-10 (ix), a
    0000186E DD 7E 05         [19] 4644 	ld	a, 5 (ix)
    00001871 DD 9E FD         [19] 4645 	sbc	a, -3 (ix)
    00001874 DD 77 F7         [19] 4646 	ld	-9 (ix), a
                                   4647 ;video.c:481: int16_t dy = abs(y2 - y1);
    00001877 DD 7E 06         [19] 4648 	ld	a, 6 (ix)
    0000187A 91               [ 4] 4649 	sub	a, c
    0000187B 6F               [ 4] 4650 	ld	l, a
    0000187C DD 7E 07         [19] 4651 	ld	a, 7 (ix)
    0000187F 98               [ 4] 4652 	sbc	a, b
    00001880 67               [ 4] 4653 	ld	h, a
    00001881 CDr00r00         [17] 4654 	call	_abs
    00001884 DD 73 F8         [19] 4655 	ld	-8 (ix), e
    00001887 DD 72 F9         [19] 4656 	ld	-7 (ix), d
                                   4657 ;video.c:482: int16_t err = dx / 2;
    0000188A DD 5E F6         [19] 4658 	ld	e, -10 (ix)
    0000188D DD 56 F7         [19] 4659 	ld	d, -9 (ix)
    00001890 6B               [ 4] 4660 	ld	l, e
    00001891 62               [ 4] 4661 	ld	h, d
    00001892 CB 7A            [ 8] 4662 	bit	7, d
    00001894 28 02            [12] 4663 	jr	Z, 00124$
    00001896 EB               [ 4] 4664 	ex	de, hl
    00001897 23               [ 6] 4665 	inc	hl
    00001898                       4666 00124$:
    00001898 CB 2C            [ 8] 4667 	sra	h
    0000189A CB 1D            [ 8] 4668 	rr	l
    0000189C DD 75 FE         [19] 4669 	ld	-2 (ix), l
    0000189F DD 74 FF         [19] 4670 	ld	-1 (ix), h
                                   4671 ;video.c:483: int16_t ystep = (y1 < y2) ? 1 : -1;
    000018A2 79               [ 4] 4672 	ld	a, c
    000018A3 DD 96 06         [19] 4673 	sub	a, 6 (ix)
    000018A6 78               [ 4] 4674 	ld	a, b
    000018A7 DD 9E 07         [19] 4675 	sbc	a, 7 (ix)
    000018AA E2rAFr18         [10] 4676 	jp	PO, 00220$
    000018AD EE 80            [ 7] 4677 	xor	a, #0x80
    000018AF                       4678 00220$:
    000018AF F2rB6r18         [10] 4679 	jp	P, 00125$
    000018B2 3E 01            [ 7] 4680 	ld	a, #0x01
    000018B4 18 02            [12] 4681 	jr	00126$
    000018B6                       4682 00125$:
    000018B6 3E FF            [ 7] 4683 	ld	a, #0xff
    000018B8                       4684 00126$:
    000018B8 DD 77 FA         [19] 4685 	ld	-6 (ix), a
    000018BB 07               [ 4] 4686 	rlca
    000018BC 9F               [ 4] 4687 	sbc	a, a
    000018BD DD 77 FB         [19] 4688 	ld	-5 (ix), a
    000018C0 DD 6E FC         [19] 4689 	ld	l, -4 (ix)
    000018C3 DD 66 FD         [19] 4690 	ld	h, -3 (ix)
    000018C6                       4691 00116$:
                                   4692 ;video.c:487: for (; x1 <= x2; x1++) {
    000018C6 DD 7E 04         [19] 4693 	ld	a, 4 (ix)
    000018C9 95               [ 4] 4694 	sub	a, l
    000018CA DD 7E 05         [19] 4695 	ld	a, 5 (ix)
    000018CD 9C               [ 4] 4696 	sbc	a, h
    000018CE E2rD3r18         [10] 4697 	jp	PO, 00221$
    000018D1 EE 80            [ 7] 4698 	xor	a, #0x80
    000018D3                       4699 00221$:
    000018D3 FAr3Ar19         [10] 4700 	jp	M, 00118$
                                   4701 ;video.c:488: if (steep) {
    000018D6 DD CB F5 46      [20] 4702 	bit	0, -11 (ix)
    000018DA 28 13            [12] 4703 	jr	Z, 00110$
                                   4704 ;video.c:489: vga_pixel_fast(y1, x1, color);
    000018DC E5               [11] 4705 	push	hl
    000018DD C5               [11] 4706 	push	bc
    000018DE DD 5E 08         [19] 4707 	ld	e, 8 (ix)
    000018E1 DD 56 09         [19] 4708 	ld	d, 9 (ix)
    000018E4 EB               [ 4] 4709 	ex	de, hl
    000018E5 E5               [11] 4710 	push	hl
    000018E6 69               [ 4] 4711 	ld	l, c
    000018E7 60               [ 4] 4712 	ld	h, b
    000018E8 CDr61r09         [17] 4713 	call	_vga_pixel_fast
    000018EB C1               [10] 4714 	pop	bc
    000018EC E1               [10] 4715 	pop	hl
    000018ED 18 10            [12] 4716 	jr	00111$
    000018EF                       4717 00110$:
                                   4718 ;video.c:491: vga_pixel_fast(x1, y1, color);
    000018EF E5               [11] 4719 	push	hl
    000018F0 C5               [11] 4720 	push	bc
    000018F1 DD 5E 08         [19] 4721 	ld	e, 8 (ix)
    000018F4 DD 56 09         [19] 4722 	ld	d, 9 (ix)
    000018F7 D5               [11] 4723 	push	de
    000018F8 59               [ 4] 4724 	ld	e, c
    000018F9 50               [ 4] 4725 	ld	d, b
    000018FA CDr61r09         [17] 4726 	call	_vga_pixel_fast
    000018FD C1               [10] 4727 	pop	bc
    000018FE E1               [10] 4728 	pop	hl
    000018FF                       4729 00111$:
                                   4730 ;video.c:494: err -= dy;
    000018FF DD 7E FE         [19] 4731 	ld	a, -2 (ix)
    00001902 DD 96 F8         [19] 4732 	sub	a, -8 (ix)
    00001905 DD 77 FE         [19] 4733 	ld	-2 (ix), a
    00001908 DD 7E FF         [19] 4734 	ld	a, -1 (ix)
    0000190B DD 9E F9         [19] 4735 	sbc	a, -7 (ix)
    0000190E DD 77 FF         [19] 4736 	ld	-1 (ix), a
                                   4737 ;video.c:495: if (err < 0) {
    00001911 DD 5E FE         [19] 4738 	ld	e, -2 (ix)
    00001914 DD 56 FF         [19] 4739 	ld	d, -1 (ix)
    00001917 CB 7A            [ 8] 4740 	bit	7, d
    00001919 28 1C            [12] 4741 	jr	Z, 00117$
                                   4742 ;video.c:496: y1 += ystep;
    0000191B 79               [ 4] 4743 	ld	a, c
    0000191C DD 86 FA         [19] 4744 	add	a, -6 (ix)
    0000191F 4F               [ 4] 4745 	ld	c, a
    00001920 78               [ 4] 4746 	ld	a, b
    00001921 DD 8E FB         [19] 4747 	adc	a, -5 (ix)
    00001924 47               [ 4] 4748 	ld	b, a
                                   4749 ;video.c:497: err += dx;
    00001925 DD 7E FE         [19] 4750 	ld	a, -2 (ix)
    00001928 DD 86 F6         [19] 4751 	add	a, -10 (ix)
    0000192B DD 77 FE         [19] 4752 	ld	-2 (ix), a
    0000192E DD 7E FF         [19] 4753 	ld	a, -1 (ix)
    00001931 DD 8E F7         [19] 4754 	adc	a, -9 (ix)
    00001934 DD 77 FF         [19] 4755 	ld	-1 (ix), a
    00001937                       4756 00117$:
                                   4757 ;video.c:487: for (; x1 <= x2; x1++) {
    00001937 23               [ 6] 4758 	inc	hl
    00001938 18 8C            [12] 4759 	jr	00116$
    0000193A                       4760 00118$:
                                   4761 ;video.c:500: }
    0000193A DD F9            [10] 4762 	ld	sp, ix
    0000193C DD E1            [14] 4763 	pop	ix
    0000193E E1               [10] 4764 	pop	hl
    0000193F F1               [10] 4765 	pop	af
    00001940 F1               [10] 4766 	pop	af
    00001941 F1               [10] 4767 	pop	af
    00001942 E9               [ 4] 4768 	jp	(hl)
                                   4769 ;video.c:507: void vga_printCenteredX(const char *str, int16_t xStart, int16_t xEnd, int16_t y, uint16_t color, uint16_t bg, uint8_t font) {
                                   4770 ;	---------------------------------
                                   4771 ; Function vga_printCenteredX
                                   4772 ; ---------------------------------
    00001943                       4773 _vga_printCenteredX::
    00001943 DD E5            [15] 4774 	push	ix
    00001945 DD 21 00 00      [14] 4775 	ld	ix,#0
    00001949 DD 39            [15] 4776 	add	ix,sp
    0000194B FD 21 F6 FF      [14] 4777 	ld	iy, #-10
    0000194F FD 39            [15] 4778 	add	iy, sp
    00001951 FD F9            [10] 4779 	ld	sp, iy
    00001953 DD 75 FE         [19] 4780 	ld	-2 (ix), l
    00001956 DD 74 FF         [19] 4781 	ld	-1 (ix), h
    00001959 DD 73 FC         [19] 4782 	ld	-4 (ix), e
    0000195C DD 72 FD         [19] 4783 	ld	-3 (ix), d
                                   4784 ;video.c:508: uint16_t textWidth = 0;
    0000195F AF               [ 4] 4785 	xor	a, a
    00001960 DD 77 FA         [19] 4786 	ld	-6 (ix), a
    00001963 DD 77 FB         [19] 4787 	ld	-5 (ix), a
                                   4788 ;video.c:509: uint16_t len = strlen(str);
    00001966 DD 6E FE         [19] 4789 	ld	l, -2 (ix)
    00001969 DD 66 FF         [19] 4790 	ld	h, -1 (ix)
    0000196C CDr00r00         [17] 4791 	call	_strlen
    0000196F DD 73 F8         [19] 4792 	ld	-8 (ix), e
                                   4793 ;video.c:511: if (len == 0) return; // Evitiamo calcoli inutili
    00001972 DD 72 F9         [19] 4794 	ld	-7 (ix), d
    00001975 7A               [ 4] 4795 	ld	a, d
    00001976 DD B6 F8         [19] 4796 	or	a, -8 (ix)
    00001979 CAr6Fr1A         [10] 4797 	jp	Z, 00112$
                                   4798 ;video.c:513: if (font == 2) {
    0000197C DD 7E 0C         [19] 4799 	ld	a, 12 (ix)
    0000197F D6 02            [ 7] 4800 	sub	a, #0x02
    00001981 20 4A            [12] 4801 	jr	NZ, 00107$
                                   4802 ;video.c:515: for (uint16_t i = 0; i < len; i++) {
    00001983 01 00 00         [10] 4803 	ld	bc, #0x0000
    00001986                       4804 00110$:
    00001986 79               [ 4] 4805 	ld	a, c
    00001987 DD 96 F8         [19] 4806 	sub	a, -8 (ix)
    0000198A 78               [ 4] 4807 	ld	a, b
    0000198B DD 9E F9         [19] 4808 	sbc	a, -7 (ix)
    0000198E 30 2B            [12] 4809 	jr	NC, 00105$
                                   4810 ;video.c:516: uint8_t uniCode = (uint8_t)str[i];
    00001990 DD 6E FE         [19] 4811 	ld	l, -2 (ix)
    00001993 DD 66 FF         [19] 4812 	ld	h, -1 (ix)
    00001996 09               [11] 4813 	add	hl, bc
    00001997 7E               [ 7] 4814 	ld	a, (hl)
                                   4815 ;video.c:519: if (uniCode < 32) uniCode = 32;
    00001998 FE 20            [ 7] 4816 	cp	a, #0x20
    0000199A 30 02            [12] 4817 	jr	NC, 00104$
    0000199C 3E 20            [ 7] 4818 	ld	a, #0x20
    0000199E                       4819 00104$:
                                   4820 ;video.c:523: textWidth += widtbl_f16[uniCode - 32];
    0000199E C6 E0            [ 7] 4821 	add	a, #0xe0
    000019A0 5F               [ 4] 4822 	ld	e, a
    000019A1 07               [ 4] 4823 	rlca
    000019A2 9F               [ 4] 4824 	sbc	a, a
    000019A3 57               [ 4] 4825 	ld	d, a
    000019A4 21r74r06         [10] 4826 	ld	hl, #_widtbl_f16
    000019A7 19               [11] 4827 	add	hl, de
    000019A8 5E               [ 7] 4828 	ld	e, (hl)
    000019A9 DD 6E FA         [19] 4829 	ld	l, -6 (ix)
    000019AC DD 66 FB         [19] 4830 	ld	h, -5 (ix)
    000019AF 16 00            [ 7] 4831 	ld	d, #0x00
    000019B1 19               [11] 4832 	add	hl, de
    000019B2 DD 75 FA         [19] 4833 	ld	-6 (ix), l
    000019B5 DD 74 FB         [19] 4834 	ld	-5 (ix), h
                                   4835 ;video.c:515: for (uint16_t i = 0; i < len; i++) {
    000019B8 03               [ 6] 4836 	inc	bc
    000019B9 18 CB            [12] 4837 	jr	00110$
    000019BB                       4838 00105$:
                                   4839 ;video.c:525: textWidth--; 
    000019BB DD 7E FA         [19] 4840 	ld	a, -6 (ix)
    000019BE C6 FF            [ 7] 4841 	add	a, #0xff
    000019C0 DD 77 F6         [19] 4842 	ld	-10 (ix), a
    000019C3 DD 7E FB         [19] 4843 	ld	a, -5 (ix)
    000019C6 CE FF            [ 7] 4844 	adc	a, #0xff
    000019C8 DD 77 F7         [19] 4845 	ld	-9 (ix), a
    000019CB 18 17            [12] 4846 	jr	00108$
    000019CD                       4847 00107$:
                                   4848 ;video.c:529: textWidth = (len * 6 * font) - 1; 
    000019CD E1               [10] 4849 	pop	hl
    000019CE C1               [10] 4850 	pop	bc
    000019CF C5               [11] 4851 	push	bc
    000019D0 E5               [11] 4852 	push	hl
    000019D1 69               [ 4] 4853 	ld	l, c
    000019D2 60               [ 4] 4854 	ld	h, b
    000019D3 29               [11] 4855 	add	hl, hl
    000019D4 09               [11] 4856 	add	hl, bc
    000019D5 29               [11] 4857 	add	hl, hl
    000019D6 DD 5E 0C         [19] 4858 	ld	e, 12 (ix)
    000019D9 16 00            [ 7] 4859 	ld	d, #0x00
    000019DB CDr00r00         [17] 4860 	call	__mulint
    000019DE 4B               [ 4] 4861 	ld	c, e
    000019DF 42               [ 4] 4862 	ld	b, d
    000019E0 0B               [ 6] 4863 	dec	bc
    000019E1 33               [ 6] 4864 	inc	sp
    000019E2 33               [ 6] 4865 	inc	sp
    000019E3 C5               [11] 4866 	push	bc
    000019E4                       4867 00108$:
                                   4868 ;video.c:532: int16_t areaWidth = xEnd - xStart;
    000019E4 DD 7E 04         [19] 4869 	ld	a, 4 (ix)
    000019E7 DD 96 FC         [19] 4870 	sub	a, -4 (ix)
    000019EA DD 77 FA         [19] 4871 	ld	-6 (ix), a
    000019ED DD 7E 05         [19] 4872 	ld	a, 5 (ix)
    000019F0 DD 9E FD         [19] 4873 	sbc	a, -3 (ix)
    000019F3 DD 77 FB         [19] 4874 	ld	-5 (ix), a
                                   4875 ;video.c:533: int16_t centeredX = xStart + (areaWidth - textWidth) / 2;
    000019F6 DD 7E FA         [19] 4876 	ld	a, -6 (ix)
    000019F9 DD 77 F8         [19] 4877 	ld	-8 (ix), a
    000019FC DD 7E FB         [19] 4878 	ld	a, -5 (ix)
    000019FF DD 77 F9         [19] 4879 	ld	-7 (ix), a
    00001A02 DD 7E F8         [19] 4880 	ld	a, -8 (ix)
    00001A05 DD 96 F6         [19] 4881 	sub	a, -10 (ix)
    00001A08 DD 77 FA         [19] 4882 	ld	-6 (ix), a
    00001A0B DD 7E F9         [19] 4883 	ld	a, -7 (ix)
    00001A0E DD 9E F7         [19] 4884 	sbc	a, -9 (ix)
    00001A11 DD 77 FB         [19] 4885 	ld	-5 (ix), a
    00001A14 DD 7E FA         [19] 4886 	ld	a, -6 (ix)
    00001A17 DD 77 F6         [19] 4887 	ld	-10 (ix), a
    00001A1A DD 7E FB         [19] 4888 	ld	a, -5 (ix)
    00001A1D DD 77 F7         [19] 4889 	ld	-9 (ix), a
    00001A20 DD CB F7 3E      [23] 4890 	srl	-9 (ix)
    00001A24 DD CB F6 1E      [23] 4891 	rr	-10 (ix)
    00001A28 DD 7E FC         [19] 4892 	ld	a, -4 (ix)
    00001A2B DD 77 F8         [19] 4893 	ld	-8 (ix), a
    00001A2E DD 7E FD         [19] 4894 	ld	a, -3 (ix)
    00001A31 DD 77 F9         [19] 4895 	ld	-7 (ix), a
    00001A34 DD 7E F6         [19] 4896 	ld	a, -10 (ix)
    00001A37 DD 86 F8         [19] 4897 	add	a, -8 (ix)
    00001A3A DD 77 FA         [19] 4898 	ld	-6 (ix), a
    00001A3D DD 7E F7         [19] 4899 	ld	a, -9 (ix)
    00001A40 DD 8E F9         [19] 4900 	adc	a, -7 (ix)
    00001A43 DD 77 FB         [19] 4901 	ld	-5 (ix), a
                                   4902 ;video.c:538: vga_printAt(str, centeredX, y, color, bg, font);
    00001A46 DD 7E 0C         [19] 4903 	ld	a, 12 (ix)
    00001A49 F5               [11] 4904 	push	af
    00001A4A 33               [ 6] 4905 	inc	sp
    00001A4B DD 6E 0A         [19] 4906 	ld	l, 10 (ix)
    00001A4E DD 66 0B         [19] 4907 	ld	h, 11 (ix)
    00001A51 E5               [11] 4908 	push	hl
    00001A52 DD 6E 08         [19] 4909 	ld	l, 8 (ix)
    00001A55 DD 66 09         [19] 4910 	ld	h, 9 (ix)
    00001A58 E5               [11] 4911 	push	hl
    00001A59 DD 6E 06         [19] 4912 	ld	l, 6 (ix)
    00001A5C DD 66 07         [19] 4913 	ld	h, 7 (ix)
    00001A5F E5               [11] 4914 	push	hl
    00001A60 DD 5E FA         [19] 4915 	ld	e, -6 (ix)
    00001A63 DD 56 FB         [19] 4916 	ld	d, -5 (ix)
    00001A66 DD 6E FE         [19] 4917 	ld	l, -2 (ix)
    00001A69 DD 66 FF         [19] 4918 	ld	h, -1 (ix)
    00001A6C CDr3Ar12         [17] 4919 	call	_vga_printAt
    00001A6F                       4920 00112$:
                                   4921 ;video.c:539: }
    00001A6F DD F9            [10] 4922 	ld	sp, ix
    00001A71 DD E1            [14] 4923 	pop	ix
    00001A73 E1               [10] 4924 	pop	hl
    00001A74 F1               [10] 4925 	pop	af
    00001A75 F1               [10] 4926 	pop	af
    00001A76 F1               [10] 4927 	pop	af
    00001A77 F1               [10] 4928 	pop	af
    00001A78 33               [ 6] 4929 	inc	sp
    00001A79 E9               [ 4] 4930 	jp	(hl)
                                   4931 ;video.c:545: void vga_FillTriangle(Point_t p0, Point_t p1, Point_t p2, uint16_t color) {
                                   4932 ;	---------------------------------
                                   4933 ; Function vga_FillTriangle
                                   4934 ; ---------------------------------
    00001A7A                       4935 _vga_FillTriangle::
    00001A7A DD E5            [15] 4936 	push	ix
    00001A7C DD 21 00 00      [14] 4937 	ld	ix,#0
    00001A80 DD 39            [15] 4938 	add	ix,sp
    00001A82 21 EF FF         [10] 4939 	ld	hl, #-17
    00001A85 39               [11] 4940 	add	hl, sp
    00001A86 F9               [ 6] 4941 	ld	sp, hl
                                   4942 ;video.c:547: if (p0.y > p1.y) { swap_int16(&p0.y, &p1.y); swap_int16(&p0.x, &p1.x); }
    00001A87 DD 4E 06         [19] 4943 	ld	c, 6 (ix)
    00001A8A DD 46 07         [19] 4944 	ld	b, 7 (ix)
    00001A8D DD 5E 0A         [19] 4945 	ld	e, 10 (ix)
    00001A90 DD 56 0B         [19] 4946 	ld	d, 11 (ix)
    00001A93 7B               [ 4] 4947 	ld	a, e
    00001A94 91               [ 4] 4948 	sub	a, c
    00001A95 7A               [ 4] 4949 	ld	a, d
    00001A96 98               [ 4] 4950 	sbc	a, b
    00001A97 E2r9Cr1A         [10] 4951 	jp	PO, 00220$
    00001A9A EE 80            [ 7] 4952 	xor	a, #0x80
    00001A9C                       4953 00220$:
    00001A9C F2rB7r1A         [10] 4954 	jp	P, 00102$
    00001A9F 21 1B 00         [10] 4955 	ld	hl, #27
    00001AA2 39               [11] 4956 	add	hl, sp
    00001AA3 EB               [ 4] 4957 	ex	de, hl
    00001AA4 21 17 00         [10] 4958 	ld	hl, #23
    00001AA7 39               [11] 4959 	add	hl, sp
    00001AA8 CDrFBr08         [17] 4960 	call	_swap_int16
    00001AAB 21 19 00         [10] 4961 	ld	hl, #25
    00001AAE 39               [11] 4962 	add	hl, sp
    00001AAF EB               [ 4] 4963 	ex	de, hl
    00001AB0 21 15 00         [10] 4964 	ld	hl, #21
    00001AB3 39               [11] 4965 	add	hl, sp
    00001AB4 CDrFBr08         [17] 4966 	call	_swap_int16
    00001AB7                       4967 00102$:
                                   4968 ;video.c:548: if (p1.y > p2.y) { swap_int16(&p1.y, &p2.y); swap_int16(&p1.x, &p2.x); }
    00001AB7 DD 4E 0A         [19] 4969 	ld	c, 10 (ix)
    00001ABA DD 46 0B         [19] 4970 	ld	b, 11 (ix)
    00001ABD DD 5E 0E         [19] 4971 	ld	e, 14 (ix)
    00001AC0 DD 56 0F         [19] 4972 	ld	d, 15 (ix)
    00001AC3 7B               [ 4] 4973 	ld	a, e
    00001AC4 91               [ 4] 4974 	sub	a, c
    00001AC5 7A               [ 4] 4975 	ld	a, d
    00001AC6 98               [ 4] 4976 	sbc	a, b
    00001AC7 E2rCCr1A         [10] 4977 	jp	PO, 00221$
    00001ACA EE 80            [ 7] 4978 	xor	a, #0x80
    00001ACC                       4979 00221$:
    00001ACC F2rE7r1A         [10] 4980 	jp	P, 00104$
    00001ACF 21 1F 00         [10] 4981 	ld	hl, #31
    00001AD2 39               [11] 4982 	add	hl, sp
    00001AD3 EB               [ 4] 4983 	ex	de, hl
    00001AD4 21 1B 00         [10] 4984 	ld	hl, #27
    00001AD7 39               [11] 4985 	add	hl, sp
    00001AD8 CDrFBr08         [17] 4986 	call	_swap_int16
    00001ADB 21 1D 00         [10] 4987 	ld	hl, #29
    00001ADE 39               [11] 4988 	add	hl, sp
    00001ADF EB               [ 4] 4989 	ex	de, hl
    00001AE0 21 19 00         [10] 4990 	ld	hl, #25
    00001AE3 39               [11] 4991 	add	hl, sp
    00001AE4 CDrFBr08         [17] 4992 	call	_swap_int16
    00001AE7                       4993 00104$:
                                   4994 ;video.c:549: if (p0.y > p1.y) { swap_int16(&p0.y, &p1.y); swap_int16(&p0.x, &p1.x); }
    00001AE7 DD 4E 06         [19] 4995 	ld	c, 6 (ix)
    00001AEA DD 46 07         [19] 4996 	ld	b, 7 (ix)
    00001AED DD 5E 0A         [19] 4997 	ld	e, 10 (ix)
    00001AF0 DD 56 0B         [19] 4998 	ld	d, 11 (ix)
    00001AF3 7B               [ 4] 4999 	ld	a, e
    00001AF4 91               [ 4] 5000 	sub	a, c
    00001AF5 7A               [ 4] 5001 	ld	a, d
    00001AF6 98               [ 4] 5002 	sbc	a, b
    00001AF7 E2rFCr1A         [10] 5003 	jp	PO, 00222$
    00001AFA EE 80            [ 7] 5004 	xor	a, #0x80
    00001AFC                       5005 00222$:
    00001AFC F2r17r1B         [10] 5006 	jp	P, 00106$
    00001AFF 21 1B 00         [10] 5007 	ld	hl, #27
    00001B02 39               [11] 5008 	add	hl, sp
    00001B03 EB               [ 4] 5009 	ex	de, hl
    00001B04 21 17 00         [10] 5010 	ld	hl, #23
    00001B07 39               [11] 5011 	add	hl, sp
    00001B08 CDrFBr08         [17] 5012 	call	_swap_int16
    00001B0B 21 19 00         [10] 5013 	ld	hl, #25
    00001B0E 39               [11] 5014 	add	hl, sp
    00001B0F EB               [ 4] 5015 	ex	de, hl
    00001B10 21 15 00         [10] 5016 	ld	hl, #21
    00001B13 39               [11] 5017 	add	hl, sp
    00001B14 CDrFBr08         [17] 5018 	call	_swap_int16
    00001B17                       5019 00106$:
                                   5020 ;video.c:551: int16_t total_height = p2.y - p0.y;
    00001B17 DD 4E 0E         [19] 5021 	ld	c, 14 (ix)
    00001B1A DD 46 0F         [19] 5022 	ld	b, 15 (ix)
    00001B1D DD 7E 06         [19] 5023 	ld	a, 6 (ix)
    00001B20 DD 77 FE         [19] 5024 	ld	-2 (ix), a
    00001B23 DD 7E 07         [19] 5025 	ld	a, 7 (ix)
    00001B26 DD 77 FF         [19] 5026 	ld	-1 (ix), a
    00001B29 79               [ 4] 5027 	ld	a, c
    00001B2A DD 96 FE         [19] 5028 	sub	a, -2 (ix)
    00001B2D 4F               [ 4] 5029 	ld	c, a
    00001B2E 78               [ 4] 5030 	ld	a, b
    00001B2F DD 9E FF         [19] 5031 	sbc	a, -1 (ix)
    00001B32 47               [ 4] 5032 	ld	b, a
    00001B33 DD 71 F3         [19] 5033 	ld	-13 (ix), c
    00001B36 DD 70 F4         [19] 5034 	ld	-12 (ix), b
                                   5035 ;video.c:552: if (total_height == 0) return; // Protezione: triangolo degenere
    00001B39 78               [ 4] 5036 	ld	a, b
    00001B3A B1               [ 4] 5037 	or	a, c
    00001B3B CAr6Cr1D         [10] 5038 	jp	Z, 00117$
                                   5039 ;video.c:555: for (int16_t y = p0.y; y <= p2.y; y++) {
    00001B3E                       5040 00116$:
                                   5041 ;video.c:548: if (p1.y > p2.y) { swap_int16(&p1.y, &p2.y); swap_int16(&p1.x, &p2.x); }
    00001B3E DD 4E 0E         [19] 5042 	ld	c, 14 (ix)
    00001B41 DD 46 0F         [19] 5043 	ld	b, 15 (ix)
                                   5044 ;video.c:555: for (int16_t y = p0.y; y <= p2.y; y++) {
    00001B44 79               [ 4] 5045 	ld	a, c
    00001B45 DD 96 FE         [19] 5046 	sub	a, -2 (ix)
    00001B48 78               [ 4] 5047 	ld	a, b
    00001B49 DD 9E FF         [19] 5048 	sbc	a, -1 (ix)
    00001B4C E2r51r1B         [10] 5049 	jp	PO, 00223$
    00001B4F EE 80            [ 7] 5050 	xor	a, #0x80
    00001B51                       5051 00223$:
    00001B51 FAr6Cr1D         [10] 5052 	jp	M, 00117$
                                   5053 ;video.c:547: if (p0.y > p1.y) { swap_int16(&p0.y, &p1.y); swap_int16(&p0.x, &p1.x); }
    00001B54 DD 7E 0A         [19] 5054 	ld	a, 10 (ix)
    00001B57 DD 77 F5         [19] 5055 	ld	-11 (ix), a
    00001B5A DD 7E 0B         [19] 5056 	ld	a, 11 (ix)
    00001B5D DD 77 F6         [19] 5057 	ld	-10 (ix), a
                                   5058 ;video.c:557: bool second_half = (y > p1.y || p1.y == p0.y);
    00001B60 DD 7E F5         [19] 5059 	ld	a, -11 (ix)
    00001B63 DD 96 FE         [19] 5060 	sub	a, -2 (ix)
    00001B66 DD 7E F6         [19] 5061 	ld	a, -10 (ix)
    00001B69 DD 9E FF         [19] 5062 	sbc	a, -1 (ix)
    00001B6C E2r71r1B         [10] 5063 	jp	PO, 00224$
    00001B6F EE 80            [ 7] 5064 	xor	a, #0x80
    00001B71                       5065 00224$:
    00001B71 FAr8Br1B         [10] 5066 	jp	M, 00120$
    00001B74 DD 5E 06         [19] 5067 	ld	e, 6 (ix)
    00001B77 DD 56 07         [19] 5068 	ld	d, 7 (ix)
    00001B7A DD 6E F5         [19] 5069 	ld	l, -11 (ix)
    00001B7D DD 66 F6         [19] 5070 	ld	h, -10 (ix)
    00001B80 BF               [ 4] 5071 	cp	a, a
    00001B81 ED 52            [15] 5072 	sbc	hl, de
    00001B83 28 06            [12] 5073 	jr	Z, 00120$
    00001B85 DD 36 FD 00      [19] 5074 	ld	-3 (ix), #0x00
    00001B89 18 04            [12] 5075 	jr	00121$
    00001B8B                       5076 00120$:
    00001B8B DD 36 FD 01      [19] 5077 	ld	-3 (ix), #0x01
    00001B8F                       5078 00121$:
    00001B8F DD 7E FD         [19] 5079 	ld	a, -3 (ix)
    00001B92 DD 77 F7         [19] 5080 	ld	-9 (ix), a
                                   5081 ;video.c:558: int16_t segment_height = second_half ? (p2.y - p1.y) : (p1.y - p0.y);
    00001B95 DD CB F7 46      [20] 5082 	bit	0, -9 (ix)
    00001B99 28 0C            [12] 5083 	jr	Z, 00122$
    00001B9B 79               [ 4] 5084 	ld	a, c
    00001B9C DD 96 F5         [19] 5085 	sub	a, -11 (ix)
    00001B9F 4F               [ 4] 5086 	ld	c, a
    00001BA0 78               [ 4] 5087 	ld	a, b
    00001BA1 DD 9E F6         [19] 5088 	sbc	a, -10 (ix)
    00001BA4 47               [ 4] 5089 	ld	b, a
    00001BA5 18 1A            [12] 5090 	jr	00123$
    00001BA7                       5091 00122$:
    00001BA7 DD 7E 06         [19] 5092 	ld	a, 6 (ix)
    00001BAA DD 77 FC         [19] 5093 	ld	-4 (ix), a
    00001BAD DD 7E 07         [19] 5094 	ld	a, 7 (ix)
    00001BB0 DD 77 FD         [19] 5095 	ld	-3 (ix), a
    00001BB3 DD 7E F5         [19] 5096 	ld	a, -11 (ix)
    00001BB6 DD 96 FC         [19] 5097 	sub	a, -4 (ix)
    00001BB9 4F               [ 4] 5098 	ld	c, a
    00001BBA DD 7E F6         [19] 5099 	ld	a, -10 (ix)
    00001BBD DD 9E FD         [19] 5100 	sbc	a, -3 (ix)
    00001BC0 47               [ 4] 5101 	ld	b, a
    00001BC1                       5102 00123$:
    00001BC1 59               [ 4] 5103 	ld	e, c
                                   5104 ;video.c:560: if (segment_height == 0) continue; 
    00001BC2 78               [ 4] 5105 	ld	a,b
    00001BC3 57               [ 4] 5106 	ld	d,a
    00001BC4 B1               [ 4] 5107 	or	a, c
    00001BC5 CAr60r1D         [10] 5108 	jp	Z, 00113$
                                   5109 ;video.c:563: float alpha = (float)(y - p0.y) / total_height;
    00001BC8 DD 7E 06         [19] 5110 	ld	a, 6 (ix)
    00001BCB DD 77 F8         [19] 5111 	ld	-8 (ix), a
    00001BCE DD 7E 07         [19] 5112 	ld	a, 7 (ix)
    00001BD1 DD 77 F9         [19] 5113 	ld	-7 (ix), a
    00001BD4 DD 7E FE         [19] 5114 	ld	a, -2 (ix)
    00001BD7 DD 96 F8         [19] 5115 	sub	a, -8 (ix)
    00001BDA 6F               [ 4] 5116 	ld	l, a
    00001BDB DD 7E FF         [19] 5117 	ld	a, -1 (ix)
    00001BDE DD 9E F9         [19] 5118 	sbc	a, -7 (ix)
    00001BE1 D5               [11] 5119 	push	de
    00001BE2 67               [ 4] 5120 	ld	h, a
    00001BE3 CDr00r00         [17] 5121 	call	___sint2fs
    00001BE6 DD 73 FA         [19] 5122 	ld	-6 (ix), e
    00001BE9 DD 72 FB         [19] 5123 	ld	-5 (ix), d
    00001BEC DD 75 FC         [19] 5124 	ld	-4 (ix), l
    00001BEF DD 74 FD         [19] 5125 	ld	-3 (ix), h
    00001BF2 DD 6E F3         [19] 5126 	ld	l, -13 (ix)
    00001BF5 DD 66 F4         [19] 5127 	ld	h, -12 (ix)
    00001BF8 CDr00r00         [17] 5128 	call	___sint2fs
    00001BFB 4B               [ 4] 5129 	ld	c, e
    00001BFC 42               [ 4] 5130 	ld	b, d
    00001BFD E5               [11] 5131 	push	hl
    00001BFE C5               [11] 5132 	push	bc
    00001BFF DD 5E FA         [19] 5133 	ld	e, -6 (ix)
    00001C02 DD 56 FB         [19] 5134 	ld	d, -5 (ix)
    00001C05 DD 6E FC         [19] 5135 	ld	l, -4 (ix)
    00001C08 DD 66 FD         [19] 5136 	ld	h, -3 (ix)
                                   5137 ;video.c:564: float beta  = (float)(y - (second_half ? p1.y : p0.y)) / segment_height;
    00001C0B CDr00r00         [17] 5138 	call	___fsdiv
    00001C0E DD 73 FA         [19] 5139 	ld	-6 (ix), e
    00001C11 DD 72 FB         [19] 5140 	ld	-5 (ix), d
    00001C14 DD 75 FC         [19] 5141 	ld	-4 (ix), l
    00001C17 DD 74 FD         [19] 5142 	ld	-3 (ix), h
    00001C1A D1               [10] 5143 	pop	de
    00001C1B DD CB F7 46      [20] 5144 	bit	0, -9 (ix)
    00001C1F 28 08            [12] 5145 	jr	Z, 00124$
    00001C21 DD 4E F5         [19] 5146 	ld	c, -11 (ix)
    00001C24 DD 46 F6         [19] 5147 	ld	b, -10 (ix)
    00001C27 18 06            [12] 5148 	jr	00125$
    00001C29                       5149 00124$:
    00001C29 DD 4E F8         [19] 5150 	ld	c, -8 (ix)
    00001C2C DD 46 F9         [19] 5151 	ld	b, -7 (ix)
    00001C2F                       5152 00125$:
    00001C2F DD 7E FE         [19] 5153 	ld	a, -2 (ix)
    00001C32 91               [ 4] 5154 	sub	a, c
    00001C33 6F               [ 4] 5155 	ld	l, a
    00001C34 DD 7E FF         [19] 5156 	ld	a, -1 (ix)
    00001C37 98               [ 4] 5157 	sbc	a, b
    00001C38 D5               [11] 5158 	push	de
    00001C39 67               [ 4] 5159 	ld	h, a
    00001C3A CDr00r00         [17] 5160 	call	___sint2fs
    00001C3D 4B               [ 4] 5161 	ld	c, e
    00001C3E 42               [ 4] 5162 	ld	b, d
    00001C3F D1               [10] 5163 	pop	de
    00001C40 E5               [11] 5164 	push	hl
    00001C41 C5               [11] 5165 	push	bc
    00001C42 EB               [ 4] 5166 	ex	de, hl
    00001C43 CDr00r00         [17] 5167 	call	___sint2fs
    00001C46 E5               [11] 5168 	push	hl
    00001C47 FD E1            [14] 5169 	pop	iy
    00001C49 C1               [10] 5170 	pop	bc
    00001C4A E1               [10] 5171 	pop	hl
    00001C4B FD E5            [15] 5172 	push	iy
    00001C4D D5               [11] 5173 	push	de
    00001C4E 59               [ 4] 5174 	ld	e, c
    00001C4F 50               [ 4] 5175 	ld	d, b
                                   5176 ;video.c:567: int16_t ax = p0.x + (int16_t)((p2.x - p0.x) * alpha);
    00001C50 CDr00r00         [17] 5177 	call	___fsdiv
    00001C53 4B               [ 4] 5178 	ld	c, e
    00001C54 42               [ 4] 5179 	ld	b, d
    00001C55 EB               [ 4] 5180 	ex	de,hl
    00001C56 DD 7E 04         [19] 5181 	ld	a, 4 (ix)
    00001C59 DD 77 F8         [19] 5182 	ld	-8 (ix), a
    00001C5C DD 7E 05         [19] 5183 	ld	a, 5 (ix)
    00001C5F DD 77 F9         [19] 5184 	ld	-7 (ix), a
    00001C62 DD 7E 0C         [19] 5185 	ld	a, 12 (ix)
    00001C65 DD 66 0D         [19] 5186 	ld	h, 13 (ix)
    00001C68 DD 96 F8         [19] 5187 	sub	a, -8 (ix)
    00001C6B 6F               [ 4] 5188 	ld	l, a
    00001C6C 7C               [ 4] 5189 	ld	a, h
    00001C6D DD 9E F9         [19] 5190 	sbc	a, -7 (ix)
    00001C70 C5               [11] 5191 	push	bc
    00001C71 D5               [11] 5192 	push	de
    00001C72 67               [ 4] 5193 	ld	h, a
    00001C73 CDr00r00         [17] 5194 	call	___sint2fs
    00001C76 D5               [11] 5195 	push	de
    00001C77 FD E1            [14] 5196 	pop	iy
    00001C79 E5               [11] 5197 	push	hl
    00001C7A DD 6E FC         [19] 5198 	ld	l, -4 (ix)
    00001C7D DD 66 FD         [19] 5199 	ld	h, -3 (ix)
    00001C80 E3               [19] 5200 	ex	(sp), hl
    00001C81 E5               [11] 5201 	push	hl
    00001C82 DD 6E FA         [19] 5202 	ld	l, -6 (ix)
    00001C85 DD 66 FB         [19] 5203 	ld	h, -5 (ix)
    00001C88 E3               [19] 5204 	ex	(sp), hl
    00001C89 FD E5            [15] 5205 	push	iy
    00001C8B D1               [10] 5206 	pop	de
    00001C8C CDr00r00         [17] 5207 	call	___fsmul
    00001C8F CDr00r00         [17] 5208 	call	___fs2sint
    00001C92 EB               [ 4] 5209 	ex	de, hl
    00001C93 D1               [10] 5210 	pop	de
    00001C94 C1               [10] 5211 	pop	bc
    00001C95 DD 7E F8         [19] 5212 	ld	a, -8 (ix)
    00001C98 85               [ 4] 5213 	add	a, l
    00001C99 DD 77 EF         [19] 5214 	ld	-17 (ix), a
    00001C9C DD 7E F9         [19] 5215 	ld	a, -7 (ix)
    00001C9F 8C               [ 4] 5216 	adc	a, h
    00001CA0 DD 77 F0         [19] 5217 	ld	-16 (ix), a
                                   5218 ;video.c:568: int16_t bx = second_half
    00001CA3 DD 7E 08         [19] 5219 	ld	a, 8 (ix)
    00001CA6 DD 77 FC         [19] 5220 	ld	-4 (ix), a
    00001CA9 DD 7E 09         [19] 5221 	ld	a, 9 (ix)
    00001CAC DD 77 FD         [19] 5222 	ld	-3 (ix), a
    00001CAF DD CB F7 46      [20] 5223 	bit	0, -9 (ix)
    00001CB3 28 2D            [12] 5224 	jr	Z, 00126$
    00001CB5 DD 7E 0C         [19] 5225 	ld	a, 12 (ix)
    00001CB8 DD 66 0D         [19] 5226 	ld	h, 13 (ix)
    00001CBB DD 96 FC         [19] 5227 	sub	a, -4 (ix)
    00001CBE 6F               [ 4] 5228 	ld	l, a
    00001CBF 7C               [ 4] 5229 	ld	a, h
    00001CC0 DD 9E FD         [19] 5230 	sbc	a, -3 (ix)
    00001CC3 C5               [11] 5231 	push	bc
    00001CC4 D5               [11] 5232 	push	de
    00001CC5 67               [ 4] 5233 	ld	h, a
    00001CC6 CDr00r00         [17] 5234 	call	___sint2fs
    00001CC9 D5               [11] 5235 	push	de
    00001CCA FD E1            [14] 5236 	pop	iy
    00001CCC D1               [10] 5237 	pop	de
    00001CCD C1               [10] 5238 	pop	bc
    00001CCE D5               [11] 5239 	push	de
    00001CCF C5               [11] 5240 	push	bc
    00001CD0 FD E5            [15] 5241 	push	iy
    00001CD2 D1               [10] 5242 	pop	de
    00001CD3 CDr00r00         [17] 5243 	call	___fsmul
    00001CD6 CDr00r00         [17] 5244 	call	___fs2sint
    00001CD9 DD 6E FC         [19] 5245 	ld	l, -4 (ix)
    00001CDC DD 66 FD         [19] 5246 	ld	h, -3 (ix)
    00001CDF 19               [11] 5247 	add	hl, de
    00001CE0 18 36            [12] 5248 	jr	00127$
    00001CE2                       5249 00126$:
    00001CE2 DD 7E 04         [19] 5250 	ld	a, 4 (ix)
    00001CE5 DD 77 FA         [19] 5251 	ld	-6 (ix), a
    00001CE8 DD 7E 05         [19] 5252 	ld	a, 5 (ix)
    00001CEB DD 77 FB         [19] 5253 	ld	-5 (ix), a
    00001CEE DD 7E FC         [19] 5254 	ld	a, -4 (ix)
    00001CF1 DD 96 FA         [19] 5255 	sub	a, -6 (ix)
    00001CF4 6F               [ 4] 5256 	ld	l, a
    00001CF5 DD 7E FD         [19] 5257 	ld	a, -3 (ix)
    00001CF8 DD 9E FB         [19] 5258 	sbc	a, -5 (ix)
    00001CFB C5               [11] 5259 	push	bc
    00001CFC D5               [11] 5260 	push	de
    00001CFD 67               [ 4] 5261 	ld	h, a
    00001CFE CDr00r00         [17] 5262 	call	___sint2fs
    00001D01 D5               [11] 5263 	push	de
    00001D02 FD E1            [14] 5264 	pop	iy
    00001D04 D1               [10] 5265 	pop	de
    00001D05 C1               [10] 5266 	pop	bc
    00001D06 D5               [11] 5267 	push	de
    00001D07 C5               [11] 5268 	push	bc
    00001D08 FD E5            [15] 5269 	push	iy
    00001D0A D1               [10] 5270 	pop	de
    00001D0B CDr00r00         [17] 5271 	call	___fsmul
    00001D0E CDr00r00         [17] 5272 	call	___fs2sint
    00001D11 DD 6E FA         [19] 5273 	ld	l, -6 (ix)
    00001D14 DD 66 FB         [19] 5274 	ld	h, -5 (ix)
    00001D17 19               [11] 5275 	add	hl, de
    00001D18                       5276 00127$:
    00001D18 DD 75 F1         [19] 5277 	ld	-15 (ix), l
    00001D1B DD 74 F2         [19] 5278 	ld	-14 (ix), h
                                   5279 ;video.c:573: if (ax > bx) swap_int16(&ax, &bx);
    00001D1E 7D               [ 4] 5280 	ld	a, l
    00001D1F DD 96 EF         [19] 5281 	sub	a, -17 (ix)
    00001D22 7C               [ 4] 5282 	ld	a, h
    00001D23 DD 9E F0         [19] 5283 	sbc	a, -16 (ix)
    00001D26 E2r2Br1D         [10] 5284 	jp	PO, 00226$
    00001D29 EE 80            [ 7] 5285 	xor	a, #0x80
    00001D2B                       5286 00226$:
    00001D2B F2r3Ar1D         [10] 5287 	jp	P, 00112$
    00001D2E 21 02 00         [10] 5288 	ld	hl, #2
    00001D31 39               [11] 5289 	add	hl, sp
    00001D32 EB               [ 4] 5290 	ex	de, hl
    00001D33 21 00 00         [10] 5291 	ld	hl, #0
    00001D36 39               [11] 5292 	add	hl, sp
    00001D37 CDrFBr08         [17] 5293 	call	_swap_int16
    00001D3A                       5294 00112$:
                                   5295 ;video.c:576: vga_drawFastHLine(ax, y, (bx - ax + 1), color);
    00001D3A DD 7E F1         [19] 5296 	ld	a, -15 (ix)
    00001D3D DD 96 EF         [19] 5297 	sub	a, -17 (ix)
    00001D40 4F               [ 4] 5298 	ld	c, a
    00001D41 DD 7E F2         [19] 5299 	ld	a, -14 (ix)
    00001D44 DD 9E F0         [19] 5300 	sbc	a, -16 (ix)
    00001D47 47               [ 4] 5301 	ld	b, a
    00001D48 03               [ 6] 5302 	inc	bc
    00001D49 DD 6E 10         [19] 5303 	ld	l, 16 (ix)
    00001D4C DD 66 11         [19] 5304 	ld	h, 17 (ix)
    00001D4F E5               [11] 5305 	push	hl
    00001D50 C5               [11] 5306 	push	bc
    00001D51 DD 5E FE         [19] 5307 	ld	e, -2 (ix)
    00001D54 DD 56 FF         [19] 5308 	ld	d, -1 (ix)
    00001D57 DD 6E EF         [19] 5309 	ld	l, -17 (ix)
    00001D5A DD 66 F0         [19] 5310 	ld	h, -16 (ix)
    00001D5D CDr16r13         [17] 5311 	call	_vga_drawFastHLine
    00001D60                       5312 00113$:
                                   5313 ;video.c:555: for (int16_t y = p0.y; y <= p2.y; y++) {
    00001D60 DD 34 FE         [23] 5314 	inc	-2 (ix)
    00001D63 C2r3Er1B         [10] 5315 	jp	NZ, 00116$
    00001D66 DD 34 FF         [23] 5316 	inc	-1 (ix)
    00001D69 C3r3Er1B         [10] 5317 	jp	00116$
    00001D6C                       5318 00117$:
                                   5319 ;video.c:578: }
    00001D6C DD F9            [10] 5320 	ld	sp, ix
    00001D6E DD E1            [14] 5321 	pop	ix
    00001D70 E1               [10] 5322 	pop	hl
    00001D71 F1               [10] 5323 	pop	af
    00001D72 F1               [10] 5324 	pop	af
    00001D73 F1               [10] 5325 	pop	af
    00001D74 F1               [10] 5326 	pop	af
    00001D75 F1               [10] 5327 	pop	af
    00001D76 F1               [10] 5328 	pop	af
    00001D77 F1               [10] 5329 	pop	af
    00001D78 E9               [ 4] 5330 	jp	(hl)
                                   5331 ;video.c:584: void vga_Print(const char *str) {
                                   5332 ;	---------------------------------
                                   5333 ; Function vga_Print
                                   5334 ; ---------------------------------
    00001D79                       5335 _vga_Print::
                                   5336 ;video.c:585: while(*str) {
    00001D79                       5337 00101$:
    00001D79 7E               [ 7] 5338 	ld	a, (hl)
    00001D7A B7               [ 4] 5339 	or	a, a
    00001D7B C8               [11] 5340 	ret	Z
                                   5341 ;video.c:587: vga_write((uint8_t)*str++);
    00001D7C 23               [ 6] 5342 	inc	hl
    00001D7D E5               [11] 5343 	push	hl
    00001D7E CDr73r21         [17] 5344 	call	_vga_write
    00001D81 E1               [10] 5345 	pop	hl
                                   5346 ;video.c:589: }
    00001D82 18 F5            [12] 5347 	jr	00101$
                                   5348 ;video.c:595: void vga_Print_int16(int16_t value) {
                                   5349 ;	---------------------------------
                                   5350 ; Function vga_Print_int16
                                   5351 ; ---------------------------------
    00001D84                       5352 _vga_Print_int16::
    00001D84 DD E5            [15] 5353 	push	ix
    00001D86 DD 21 00 00      [14] 5354 	ld	ix,#0
    00001D8A DD 39            [15] 5355 	add	ix,sp
    00001D8C FD 21 F6 FF      [14] 5356 	ld	iy, #-10
    00001D90 FD 39            [15] 5357 	add	iy, sp
    00001D92 FD F9            [10] 5358 	ld	sp, iy
    00001D94 4D               [ 4] 5359 	ld	c, l
    00001D95 44               [ 4] 5360 	ld	b, h
                                   5361 ;video.c:597: if (value < 0) {
    00001D96 50               [ 4] 5362 	ld	d, b
    00001D97 CB 7A            [ 8] 5363 	bit	7, d
    00001D99 28 0E            [12] 5364 	jr	Z, 00102$
                                   5365 ;video.c:598: vga_Print("-");
    00001D9B C5               [11] 5366 	push	bc
    00001D9C 21r15r1E         [10] 5367 	ld	hl, #___str_0
    00001D9F CDr79r1D         [17] 5368 	call	_vga_Print
    00001DA2 C1               [10] 5369 	pop	bc
                                   5370 ;video.c:599: value = -value;
    00001DA3 AF               [ 4] 5371 	xor	a, a
    00001DA4 91               [ 4] 5372 	sub	a, c
    00001DA5 4F               [ 4] 5373 	ld	c, a
    00001DA6 9F               [ 4] 5374 	sbc	a, a
    00001DA7 90               [ 4] 5375 	sub	a, b
    00001DA8 47               [ 4] 5376 	ld	b, a
    00001DA9                       5377 00102$:
                                   5378 ;video.c:603: if (value == 0) {
    00001DA9 78               [ 4] 5379 	ld	a, b
    00001DAA B1               [ 4] 5380 	or	a, c
    00001DAB 20 08            [12] 5381 	jr	NZ, 00116$
                                   5382 ;video.c:604: vga_Print("0");
    00001DAD 21r17r1E         [10] 5383 	ld	hl, #___str_1
    00001DB0 CDr79r1D         [17] 5384 	call	_vga_Print
                                   5385 ;video.c:605: return;
    00001DB3 18 5B            [12] 5386 	jr	00111$
                                   5387 ;video.c:613: while (value > 0) {
    00001DB5                       5388 00116$:
    00001DB5 DD 36 FF 00      [19] 5389 	ld	-1 (ix), #0x00
    00001DB9                       5390 00105$:
    00001DB9 AF               [ 4] 5391 	xor	a, a
    00001DBA B9               [ 4] 5392 	cp	a, c
    00001DBB 98               [ 4] 5393 	sbc	a, b
    00001DBC E2rC1r1D         [10] 5394 	jp	PO, 00157$
    00001DBF EE 80            [ 7] 5395 	xor	a, #0x80
    00001DC1                       5396 00157$:
    00001DC1 F2rEDr1D         [10] 5397 	jp	P, 00118$
                                   5398 ;video.c:614: buffer[i++] = (value % 10) + '0';
    00001DC4 DD 5E FF         [19] 5399 	ld	e, -1 (ix)
    00001DC7 16 00            [ 7] 5400 	ld	d, #0x00
    00001DC9 21 00 00         [10] 5401 	ld	hl, #0
    00001DCC 39               [11] 5402 	add	hl, sp
    00001DCD 19               [11] 5403 	add	hl, de
    00001DCE DD 34 FF         [23] 5404 	inc	-1 (ix)
    00001DD1 E5               [11] 5405 	push	hl
    00001DD2 C5               [11] 5406 	push	bc
    00001DD3 11 0A 00         [10] 5407 	ld	de, #0x000a
    00001DD6 69               [ 4] 5408 	ld	l, c
    00001DD7 60               [ 4] 5409 	ld	h, b
    00001DD8 CDr00r00         [17] 5410 	call	__modsint
    00001DDB C1               [10] 5411 	pop	bc
    00001DDC E1               [10] 5412 	pop	hl
    00001DDD 7B               [ 4] 5413 	ld	a, e
    00001DDE C6 30            [ 7] 5414 	add	a, #0x30
    00001DE0 77               [ 7] 5415 	ld	(hl), a
                                   5416 ;video.c:615: value /= 10;
    00001DE1 11 0A 00         [10] 5417 	ld	de, #0x000a
    00001DE4 69               [ 4] 5418 	ld	l, c
    00001DE5 60               [ 4] 5419 	ld	h, b
    00001DE6 CDr00r00         [17] 5420 	call	__divsint
    00001DE9 4B               [ 4] 5421 	ld	c, e
    00001DEA 42               [ 4] 5422 	ld	b, d
    00001DEB 18 CC            [12] 5423 	jr	00105$
                                   5424 ;video.c:619: while (i > 0) {
    00001DED                       5425 00118$:
    00001DED DD 4E FF         [19] 5426 	ld	c, -1 (ix)
    00001DF0                       5427 00108$:
    00001DF0 79               [ 4] 5428 	ld	a, c
    00001DF1 B7               [ 4] 5429 	or	a, a
    00001DF2 28 1C            [12] 5430 	jr	Z, 00111$
                                   5431 ;video.c:620: char s[2] = {buffer[--i], '\0'};
    00001DF4 0D               [ 4] 5432 	dec	c
    00001DF5 59               [ 4] 5433 	ld	e, c
    00001DF6 16 00            [ 7] 5434 	ld	d, #0x00
    00001DF8 21 00 00         [10] 5435 	ld	hl, #0
    00001DFB 39               [11] 5436 	add	hl, sp
    00001DFC 19               [11] 5437 	add	hl, de
    00001DFD 7E               [ 7] 5438 	ld	a, (hl)
    00001DFE DD 77 FD         [19] 5439 	ld	-3 (ix), a
    00001E01 DD 36 FE 00      [19] 5440 	ld	-2 (ix), #0x00
                                   5441 ;video.c:621: vga_Print(s);
    00001E05 C5               [11] 5442 	push	bc
    00001E06 21 09 00         [10] 5443 	ld	hl, #9
    00001E09 39               [11] 5444 	add	hl, sp
    00001E0A CDr79r1D         [17] 5445 	call	_vga_Print
    00001E0D C1               [10] 5446 	pop	bc
    00001E0E 18 E0            [12] 5447 	jr	00108$
    00001E10                       5448 00111$:
                                   5449 ;video.c:623: }
    00001E10 DD F9            [10] 5450 	ld	sp, ix
    00001E12 DD E1            [14] 5451 	pop	ix
    00001E14 C9               [10] 5452 	ret
    00001E15                       5453 ___str_0:
    00001E15 2D                    5454 	.ascii "-"
    00001E16 00                    5455 	.db 0x00
    00001E17                       5456 ___str_1:
    00001E17 30                    5457 	.ascii "0"
    00001E18 00                    5458 	.db 0x00
                                   5459 ;video.c:625: void vga_print_float(float value, uint8_t decimals) {
                                   5460 ;	---------------------------------
                                   5461 ; Function vga_print_float
                                   5462 ; ---------------------------------
    00001E19                       5463 _vga_print_float::
    00001E19 DD E5            [15] 5464 	push	ix
    00001E1B DD 21 00 00      [14] 5465 	ld	ix,#0
    00001E1F DD 39            [15] 5466 	add	ix,sp
    00001E21 F5               [11] 5467 	push	af
    00001E22 F5               [11] 5468 	push	af
    00001E23 4D               [ 4] 5469 	ld	c, l
    00001E24 44               [ 4] 5470 	ld	b, h
                                   5471 ;video.c:627: if (value < 0) {
    00001E25 C5               [11] 5472 	push	bc
    00001E26 D5               [11] 5473 	push	de
    00001E27 21 00 00         [10] 5474 	ld	hl, #0x0000
    00001E2A E5               [11] 5475 	push	hl
    00001E2B E5               [11] 5476 	push	hl
    00001E2C 69               [ 4] 5477 	ld	l, c
    00001E2D 60               [ 4] 5478 	ld	h, b
    00001E2E CDr00r00         [17] 5479 	call	___fslt
    00001E31 D1               [10] 5480 	pop	de
    00001E32 C1               [10] 5481 	pop	bc
    00001E33 B7               [ 4] 5482 	or	a, a
    00001E34 28 0E            [12] 5483 	jr	Z, 00102$
                                   5484 ;video.c:628: vga_Print("-");
    00001E36 C5               [11] 5485 	push	bc
    00001E37 D5               [11] 5486 	push	de
    00001E38 21rE5r1E         [10] 5487 	ld	hl, #___str_2
    00001E3B CDr79r1D         [17] 5488 	call	_vga_Print
    00001E3E D1               [10] 5489 	pop	de
    00001E3F C1               [10] 5490 	pop	bc
                                   5491 ;video.c:629: value = -value;
    00001E40 78               [ 4] 5492 	ld	a, b
    00001E41 EE 80            [ 7] 5493 	xor	a,#0x80
    00001E43 47               [ 4] 5494 	ld	b, a
    00001E44                       5495 00102$:
                                   5496 ;video.c:633: uint32_t integral = (uint32_t)value;
    00001E44 C5               [11] 5497 	push	bc
    00001E45 D5               [11] 5498 	push	de
    00001E46 69               [ 4] 5499 	ld	l, c
    00001E47 60               [ 4] 5500 	ld	h, b
    00001E48 CDr00r00         [17] 5501 	call	___fs2ulong
    00001E4B DD 73 FC         [19] 5502 	ld	-4 (ix), e
    00001E4E DD 72 FD         [19] 5503 	ld	-3 (ix), d
    00001E51 DD 75 FE         [19] 5504 	ld	-2 (ix), l
    00001E54 DD 74 FF         [19] 5505 	ld	-1 (ix), h
                                   5506 ;video.c:634: vga_print_int(integral); // Uso la tua funzione per gli interi
    00001E57 DD 5E FC         [19] 5507 	ld	e, -4 (ix)
    00001E5A DD 56 FD         [19] 5508 	ld	d, -3 (ix)
    00001E5D DD 6E FE         [19] 5509 	ld	l, -2 (ix)
    00001E60 DD 66 FF         [19] 5510 	ld	h, -1 (ix)
    00001E63 CDr7Br1F         [17] 5511 	call	_vga_print_int
    00001E66 D1               [10] 5512 	pop	de
    00001E67 C1               [10] 5513 	pop	bc
                                   5514 ;video.c:637: if (decimals > 0) {
    00001E68 DD 7E 04         [19] 5515 	ld	a, 4 (ix)
    00001E6B B7               [ 4] 5516 	or	a, a
    00001E6C 28 70            [12] 5517 	jr	Z, 00109$
                                   5518 ;video.c:638: vga_Print(".");
    00001E6E C5               [11] 5519 	push	bc
    00001E6F D5               [11] 5520 	push	de
    00001E70 21rE7r1E         [10] 5521 	ld	hl, #___str_3
    00001E73 CDr79r1D         [17] 5522 	call	_vga_Print
                                   5523 ;video.c:641: float fraction = value - (float)integral;
    00001E76 DD 5E FC         [19] 5524 	ld	e, -4 (ix)
    00001E79 DD 56 FD         [19] 5525 	ld	d, -3 (ix)
    00001E7C DD 6E FE         [19] 5526 	ld	l, -2 (ix)
    00001E7F DD 66 FF         [19] 5527 	ld	h, -1 (ix)
    00001E82 CDr00r00         [17] 5528 	call	___ulong2fs
    00001E85 D5               [11] 5529 	push	de
    00001E86 FD E1            [14] 5530 	pop	iy
    00001E88 D1               [10] 5531 	pop	de
    00001E89 C1               [10] 5532 	pop	bc
    00001E8A E5               [11] 5533 	push	hl
    00001E8B FD E5            [15] 5534 	push	iy
    00001E8D 69               [ 4] 5535 	ld	l, c
    00001E8E 60               [ 4] 5536 	ld	h, b
                                   5537 ;video.c:642: for (uint8_t i = 0; i < decimals; i++) {
    00001E8F CDr00r00         [17] 5538 	call	___fssub
    00001E92 DD 36 FF 00      [19] 5539 	ld	-1 (ix), #0x00
    00001E96                       5540 00107$:
    00001E96 DD 7E FF         [19] 5541 	ld	a, -1 (ix)
    00001E99 DD 96 04         [19] 5542 	sub	a, 4 (ix)
    00001E9C 30 40            [12] 5543 	jr	NC, 00109$
                                   5544 ;video.c:643: fraction *= 10.0f;
    00001E9E E5               [11] 5545 	push	hl
    00001E9F D5               [11] 5546 	push	de
    00001EA0 11 00 00         [10] 5547 	ld	de, #0x0000
    00001EA3 21 20 41         [10] 5548 	ld	hl, #0x4120
                                   5549 ;video.c:644: uint8_t digit = (uint8_t)fraction;
    00001EA6 CDr00r00         [17] 5550 	call	___fsmul
    00001EA9 E5               [11] 5551 	push	hl
    00001EAA D5               [11] 5552 	push	de
    00001EAB CDr00r00         [17] 5553 	call	___fs2uchar
    00001EAE DD 77 FE         [19] 5554 	ld	-2 (ix), a
    00001EB1 D1               [10] 5555 	pop	de
    00001EB2 E1               [10] 5556 	pop	hl
                                   5557 ;video.c:645: vga_print_int(digit);
    00001EB3 DD 4E FE         [19] 5558 	ld	c, -2 (ix)
    00001EB6 06 00            [ 7] 5559 	ld	b, #0x00
    00001EB8 FD 21 00 00      [14] 5560 	ld	iy, #0x0000
    00001EBC E5               [11] 5561 	push	hl
    00001EBD D5               [11] 5562 	push	de
    00001EBE FD E5            [15] 5563 	push	iy
    00001EC0 E1               [10] 5564 	pop	hl
    00001EC1 59               [ 4] 5565 	ld	e, c
    00001EC2 50               [ 4] 5566 	ld	d, b
    00001EC3 CDr7Br1F         [17] 5567 	call	_vga_print_int
                                   5568 ;video.c:646: fraction -= (float)digit;
    00001EC6 DD 7E FE         [19] 5569 	ld	a, -2 (ix)
    00001EC9 CDr00r00         [17] 5570 	call	___uchar2fs
    00001ECC E5               [11] 5571 	push	hl
    00001ECD FD E1            [14] 5572 	pop	iy
    00001ECF 4B               [ 4] 5573 	ld	c, e
    00001ED0 42               [ 4] 5574 	ld	b, d
    00001ED1 D1               [10] 5575 	pop	de
    00001ED2 E1               [10] 5576 	pop	hl
    00001ED3 FD E5            [15] 5577 	push	iy
    00001ED5 C5               [11] 5578 	push	bc
                                   5579 ;video.c:642: for (uint8_t i = 0; i < decimals; i++) {
    00001ED6 CDr00r00         [17] 5580 	call	___fssub
    00001ED9 DD 34 FF         [23] 5581 	inc	-1 (ix)
    00001EDC 18 B8            [12] 5582 	jr	00107$
    00001EDE                       5583 00109$:
                                   5584 ;video.c:649: }
    00001EDE DD F9            [10] 5585 	ld	sp, ix
    00001EE0 DD E1            [14] 5586 	pop	ix
    00001EE2 E1               [10] 5587 	pop	hl
    00001EE3 33               [ 6] 5588 	inc	sp
    00001EE4 E9               [ 4] 5589 	jp	(hl)
    00001EE5                       5590 ___str_2:
    00001EE5 2D                    5591 	.ascii "-"
    00001EE6 00                    5592 	.db 0x00
    00001EE7                       5593 ___str_3:
    00001EE7 2E                    5594 	.ascii "."
    00001EE8 00                    5595 	.db 0x00
                                   5596 ;video.c:651: void vga_print_hex8(uint8_t value) {
                                   5597 ;	---------------------------------
                                   5598 ; Function vga_print_hex8
                                   5599 ; ---------------------------------
    00001EE9                       5600 _vga_print_hex8::
    00001EE9 DD E5            [15] 5601 	push	ix
    00001EEB DD 21 00 00      [14] 5602 	ld	ix,#0
    00001EEF DD 39            [15] 5603 	add	ix,sp
    00001EF1 21 ED FF         [10] 5604 	ld	hl, #-19
    00001EF4 39               [11] 5605 	add	hl, sp
    00001EF5 F9               [ 6] 5606 	ld	sp, hl
    00001EF6 4F               [ 4] 5607 	ld	c, a
                                   5608 ;video.c:653: const char hex_chars[] = "0123456789ABCDEF";
    00001EF7 DD 36 ED 30      [19] 5609 	ld	-19 (ix), #0x30
    00001EFB DD 36 EE 31      [19] 5610 	ld	-18 (ix), #0x31
    00001EFF DD 36 EF 32      [19] 5611 	ld	-17 (ix), #0x32
    00001F03 DD 36 F0 33      [19] 5612 	ld	-16 (ix), #0x33
    00001F07 DD 36 F1 34      [19] 5613 	ld	-15 (ix), #0x34
    00001F0B DD 36 F2 35      [19] 5614 	ld	-14 (ix), #0x35
    00001F0F DD 36 F3 36      [19] 5615 	ld	-13 (ix), #0x36
    00001F13 DD 36 F4 37      [19] 5616 	ld	-12 (ix), #0x37
    00001F17 DD 36 F5 38      [19] 5617 	ld	-11 (ix), #0x38
    00001F1B DD 36 F6 39      [19] 5618 	ld	-10 (ix), #0x39
    00001F1F DD 36 F7 41      [19] 5619 	ld	-9 (ix), #0x41
    00001F23 DD 36 F8 42      [19] 5620 	ld	-8 (ix), #0x42
    00001F27 DD 36 F9 43      [19] 5621 	ld	-7 (ix), #0x43
    00001F2B DD 36 FA 44      [19] 5622 	ld	-6 (ix), #0x44
    00001F2F DD 36 FB 45      [19] 5623 	ld	-5 (ix), #0x45
    00001F33 DD 36 FC 46      [19] 5624 	ld	-4 (ix), #0x46
    00001F37 DD 36 FD 00      [19] 5625 	ld	-3 (ix), #0x00
                                   5626 ;video.c:657: uint8_t high_nibble = (value >> 4) & 0x0F;
    00001F3B 79               [ 4] 5627 	ld	a, c
    00001F3C 07               [ 4] 5628 	rlca
    00001F3D 07               [ 4] 5629 	rlca
    00001F3E 07               [ 4] 5630 	rlca
    00001F3F 07               [ 4] 5631 	rlca
    00001F40 E6 0F            [ 7] 5632 	and	a, #0xf
    00001F42 5F               [ 4] 5633 	ld	e, a
                                   5634 ;video.c:661: uint8_t low_nibble = value & 0x0F;
    00001F43 79               [ 4] 5635 	ld	a, c
    00001F44 E6 0F            [ 7] 5636 	and	a, #0x0f
    00001F46 4F               [ 4] 5637 	ld	c, a
                                   5638 ;video.c:665: char buf[2] = {0, 0}; 
    00001F47 DD 36 FE 00      [19] 5639 	ld	-2 (ix), #0x00
    00001F4B DD 36 FF 00      [19] 5640 	ld	-1 (ix), #0x00
                                   5641 ;video.c:668: buf[0] = hex_chars[high_nibble];
    00001F4F 16 00            [ 7] 5642 	ld	d, #0x00
    00001F51 21 00 00         [10] 5643 	ld	hl, #0
    00001F54 39               [11] 5644 	add	hl, sp
    00001F55 19               [11] 5645 	add	hl, de
    00001F56 7E               [ 7] 5646 	ld	a, (hl)
    00001F57 DD 77 FE         [19] 5647 	ld	-2 (ix), a
                                   5648 ;video.c:669: vga_Print(buf);
    00001F5A C5               [11] 5649 	push	bc
    00001F5B 21 13 00         [10] 5650 	ld	hl, #19
    00001F5E 39               [11] 5651 	add	hl, sp
    00001F5F CDr79r1D         [17] 5652 	call	_vga_Print
    00001F62 C1               [10] 5653 	pop	bc
                                   5654 ;video.c:672: buf[0] = hex_chars[low_nibble];
    00001F63 59               [ 4] 5655 	ld	e, c
    00001F64 16 00            [ 7] 5656 	ld	d, #0x00
    00001F66 21 00 00         [10] 5657 	ld	hl, #0
    00001F69 39               [11] 5658 	add	hl, sp
    00001F6A 19               [11] 5659 	add	hl, de
    00001F6B 7E               [ 7] 5660 	ld	a, (hl)
    00001F6C DD 77 FE         [19] 5661 	ld	-2 (ix), a
                                   5662 ;video.c:673: vga_Print(buf);
    00001F6F 21 11 00         [10] 5663 	ld	hl, #17
    00001F72 39               [11] 5664 	add	hl, sp
    00001F73 CDr79r1D         [17] 5665 	call	_vga_Print
                                   5666 ;video.c:674: }
    00001F76 DD F9            [10] 5667 	ld	sp, ix
    00001F78 DD E1            [14] 5668 	pop	ix
    00001F7A C9               [10] 5669 	ret
                                   5670 ;video.c:705: void vga_print_int(int32_t num) {
                                   5671 ;	---------------------------------
                                   5672 ; Function vga_print_int
                                   5673 ; ---------------------------------
    00001F7B                       5674 _vga_print_int::
    00001F7B DD E5            [15] 5675 	push	ix
    00001F7D DD 21 00 00      [14] 5676 	ld	ix,#0
    00001F81 DD 39            [15] 5677 	add	ix,sp
    00001F83 FD 21 F1 FF      [14] 5678 	ld	iy, #-15
    00001F87 FD 39            [15] 5679 	add	iy, sp
    00001F89 FD F9            [10] 5680 	ld	sp, iy
    00001F8B 4B               [ 4] 5681 	ld	c, e
    00001F8C 42               [ 4] 5682 	ld	b, d
    00001F8D EB               [ 4] 5683 	ex	de,hl
                                   5684 ;video.c:709: if (num == 0) {
    00001F8E 7A               [ 4] 5685 	ld	a, d
    00001F8F B3               [ 4] 5686 	or	a, e
    00001F90 B0               [ 4] 5687 	or	a, b
    00001F91 B1               [ 4] 5688 	or	a, c
    00001F92 20 09            [12] 5689 	jr	NZ, 00102$
                                   5690 ;video.c:710: vga_Print("0");
    00001F94 21r3Ar20         [10] 5691 	ld	hl, #___str_5
    00001F97 CDr79r1D         [17] 5692 	call	_vga_Print
                                   5693 ;video.c:711: return;
    00001F9A C3r35r20         [10] 5694 	jp	00113$
    00001F9D                       5695 00102$:
                                   5696 ;video.c:714: if (num < 0) {
    00001F9D CB 7A            [ 8] 5697 	bit	7, d
    00001F9F 28 2A            [12] 5698 	jr	Z, 00119$
                                   5699 ;video.c:715: vga_Print("-");
    00001FA1 C5               [11] 5700 	push	bc
    00001FA2 D5               [11] 5701 	push	de
    00001FA3 21r3Cr20         [10] 5702 	ld	hl, #___str_6
    00001FA6 CDr79r1D         [17] 5703 	call	_vga_Print
    00001FA9 D1               [10] 5704 	pop	de
    00001FAA C1               [10] 5705 	pop	bc
                                   5706 ;video.c:716: if (num == -2147483648) {
    00001FAB 79               [ 4] 5707 	ld	a, c
    00001FAC B7               [ 4] 5708 	or	a, a
    00001FAD B0               [ 4] 5709 	or	a, b
    00001FAE B3               [ 4] 5710 	or	a, e
    00001FAF 20 0D            [12] 5711 	jr	NZ, 00104$
    00001FB1 7A               [ 4] 5712 	ld	a, d
    00001FB2 D6 80            [ 7] 5713 	sub	a, #0x80
    00001FB4 20 08            [12] 5714 	jr	NZ, 00104$
                                   5715 ;video.c:717: vga_Print("2147483648");
    00001FB6 21r3Er20         [10] 5716 	ld	hl, #___str_7
    00001FB9 CDr79r1D         [17] 5717 	call	_vga_Print
                                   5718 ;video.c:718: return;
    00001FBC 18 77            [12] 5719 	jr	00113$
    00001FBE                       5720 00104$:
                                   5721 ;video.c:720: num = -num;
    00001FBE AF               [ 4] 5722 	xor	a, a
    00001FBF 91               [ 4] 5723 	sub	a, c
    00001FC0 4F               [ 4] 5724 	ld	c, a
    00001FC1 3E 00            [ 7] 5725 	ld	a, #0x00
    00001FC3 98               [ 4] 5726 	sbc	a, b
    00001FC4 47               [ 4] 5727 	ld	b, a
    00001FC5 21 00 00         [10] 5728 	ld	hl, #0x0000
    00001FC8 ED 52            [15] 5729 	sbc	hl, de
    00001FCA EB               [ 4] 5730 	ex	de, hl
                                   5731 ;video.c:723: while (num > 0) {
    00001FCB                       5732 00119$:
    00001FCB DD 36 FF 00      [19] 5733 	ld	-1 (ix), #0x00
    00001FCF                       5734 00107$:
    00001FCF AF               [ 4] 5735 	xor	a, a
    00001FD0 B9               [ 4] 5736 	cp	a, c
    00001FD1 98               [ 4] 5737 	sbc	a, b
    00001FD2 3E 00            [ 7] 5738 	ld	a, #0x00
    00001FD4 9B               [ 4] 5739 	sbc	a, e
    00001FD5 3E 00            [ 7] 5740 	ld	a, #0x00
    00001FD7 9A               [ 4] 5741 	sbc	a, d
    00001FD8 E2rDDr1F         [10] 5742 	jp	PO, 00168$
    00001FDB EE 80            [ 7] 5743 	xor	a, #0x80
    00001FDD                       5744 00168$:
    00001FDD F2r12r20         [10] 5745 	jp	P, 00121$
                                   5746 ;video.c:726: int32_t q = alu_div(num, 10);
    00001FE0 21 00 00         [10] 5747 	ld	hl, #0x0000
    00001FE3 E5               [11] 5748 	push	hl
    00001FE4 2E 0A            [ 7] 5749 	ld	l, #0x0a
    00001FE6 EB               [ 4] 5750 	ex	de, hl
    00001FE7 D5               [11] 5751 	push	de
    00001FE8 59               [ 4] 5752 	ld	e, c
    00001FE9 50               [ 4] 5753 	ld	d, b
    00001FEA CDr64r08         [17] 5754 	call	_alu_div
    00001FED F1               [10] 5755 	pop	af
    00001FEE E3               [19] 5756 	ex	(sp),hl
    00001FEF FD E1            [14] 5757 	pop	iy
                                   5758 ;video.c:730: uint16_t r = alu_get_mod(); 
    00001FF1 D5               [11] 5759 	push	de
    00001FF2 FD E5            [15] 5760 	push	iy
    00001FF4 CDrA9r08         [17] 5761 	call	_alu_get_mod
    00001FF7 FD E1            [14] 5762 	pop	iy
    00001FF9 C1               [10] 5763 	pop	bc
                                   5764 ;video.c:732: buffer[i++] = (uint8_t)r + '0';
    00001FFA D5               [11] 5765 	push	de
    00001FFB DD 5E FF         [19] 5766 	ld	e, -1 (ix)
    00001FFE 16 00            [ 7] 5767 	ld	d, #0x00
    00002000 21 02 00         [10] 5768 	ld	hl, #2
    00002003 39               [11] 5769 	add	hl, sp
    00002004 19               [11] 5770 	add	hl, de
    00002005 D1               [10] 5771 	pop	de
    00002006 DD 34 FF         [23] 5772 	inc	-1 (ix)
    00002009 7B               [ 4] 5773 	ld	a, e
    0000200A C6 30            [ 7] 5774 	add	a, #0x30
    0000200C 77               [ 7] 5775 	ld	(hl), a
                                   5776 ;video.c:735: num = q;
    0000200D FD E5            [15] 5777 	push	iy
    0000200F D1               [10] 5778 	pop	de
    00002010 18 BD            [12] 5779 	jr	00107$
                                   5780 ;video.c:739: while (i > 0) {
    00002012                       5781 00121$:
    00002012 DD 4E FF         [19] 5782 	ld	c, -1 (ix)
    00002015                       5783 00110$:
    00002015 79               [ 4] 5784 	ld	a, c
    00002016 B7               [ 4] 5785 	or	a, a
    00002017 28 1C            [12] 5786 	jr	Z, 00113$
                                   5787 ;video.c:740: char c[2] = {buffer[--i], '\0'};
    00002019 0D               [ 4] 5788 	dec	c
    0000201A 59               [ 4] 5789 	ld	e, c
    0000201B 16 00            [ 7] 5790 	ld	d, #0x00
    0000201D 21 00 00         [10] 5791 	ld	hl, #0
    00002020 39               [11] 5792 	add	hl, sp
    00002021 19               [11] 5793 	add	hl, de
    00002022 7E               [ 7] 5794 	ld	a, (hl)
    00002023 DD 77 FD         [19] 5795 	ld	-3 (ix), a
    00002026 DD 36 FE 00      [19] 5796 	ld	-2 (ix), #0x00
                                   5797 ;video.c:741: vga_Print(c);
    0000202A C5               [11] 5798 	push	bc
    0000202B 21 0E 00         [10] 5799 	ld	hl, #14
    0000202E 39               [11] 5800 	add	hl, sp
    0000202F CDr79r1D         [17] 5801 	call	_vga_Print
    00002032 C1               [10] 5802 	pop	bc
    00002033 18 E0            [12] 5803 	jr	00110$
    00002035                       5804 00113$:
                                   5805 ;video.c:743: }
    00002035 DD F9            [10] 5806 	ld	sp, ix
    00002037 DD E1            [14] 5807 	pop	ix
    00002039 C9               [10] 5808 	ret
    0000203A                       5809 ___str_5:
    0000203A 30                    5810 	.ascii "0"
    0000203B 00                    5811 	.db 0x00
    0000203C                       5812 ___str_6:
    0000203C 2D                    5813 	.ascii "-"
    0000203D 00                    5814 	.db 0x00
    0000203E                       5815 ___str_7:
    0000203E 32 31 34 37 34 38 33  5816 	.ascii "2147483648"
             36 34 38
    00002048 00                    5817 	.db 0x00
                                   5818 ;video.c:745: void vga_print_int_safe(int32_t num) {
                                   5819 ;	---------------------------------
                                   5820 ; Function vga_print_int_safe
                                   5821 ; ---------------------------------
    00002049                       5822 _vga_print_int_safe::
    00002049 DD E5            [15] 5823 	push	ix
    0000204B DD 21 00 00      [14] 5824 	ld	ix,#0
    0000204F DD 39            [15] 5825 	add	ix,sp
    00002051 FD 21 F7 FF      [14] 5826 	ld	iy, #-9
    00002055 FD 39            [15] 5827 	add	iy, sp
    00002057 FD F9            [10] 5828 	ld	sp, iy
    00002059 4B               [ 4] 5829 	ld	c, e
    0000205A 42               [ 4] 5830 	ld	b, d
    0000205B EB               [ 4] 5831 	ex	de,hl
                                   5832 ;video.c:752: if (num == 0) {
    0000205C 7A               [ 4] 5833 	ld	a, d
    0000205D B3               [ 4] 5834 	or	a, e
    0000205E B0               [ 4] 5835 	or	a, b
    0000205F B1               [ 4] 5836 	or	a, c
    00002060 20 09            [12] 5837 	jr	NZ, 00102$
                                   5838 ;video.c:753: vga_Print("0");
    00002062 21r64r21         [10] 5839 	ld	hl, #___str_8
    00002065 CDr79r1D         [17] 5840 	call	_vga_Print
                                   5841 ;video.c:754: return;
    00002068 C3r37r21         [10] 5842 	jp	00118$
    0000206B                       5843 00102$:
                                   5844 ;video.c:757: if (num < 0) {
    0000206B CB 7A            [ 8] 5845 	bit	7, d
    0000206D 28 2B            [12] 5846 	jr	Z, 00106$
                                   5847 ;video.c:758: vga_Print("-");
    0000206F C5               [11] 5848 	push	bc
    00002070 D5               [11] 5849 	push	de
    00002071 21r66r21         [10] 5850 	ld	hl, #___str_9
    00002074 CDr79r1D         [17] 5851 	call	_vga_Print
    00002077 D1               [10] 5852 	pop	de
    00002078 C1               [10] 5853 	pop	bc
                                   5854 ;video.c:760: if (num == -2147483648) {
    00002079 79               [ 4] 5855 	ld	a, c
    0000207A B7               [ 4] 5856 	or	a, a
    0000207B B0               [ 4] 5857 	or	a, b
    0000207C B3               [ 4] 5858 	or	a, e
    0000207D 20 0E            [12] 5859 	jr	NZ, 00104$
    0000207F 7A               [ 4] 5860 	ld	a, d
    00002080 D6 80            [ 7] 5861 	sub	a, #0x80
    00002082 20 09            [12] 5862 	jr	NZ, 00104$
                                   5863 ;video.c:761: vga_Print("2147483648");
    00002084 21r68r21         [10] 5864 	ld	hl, #___str_10
    00002087 CDr79r1D         [17] 5865 	call	_vga_Print
                                   5866 ;video.c:762: return;
    0000208A C3r37r21         [10] 5867 	jp	00118$
    0000208D                       5868 00104$:
                                   5869 ;video.c:764: num = -num;
    0000208D AF               [ 4] 5870 	xor	a, a
    0000208E 91               [ 4] 5871 	sub	a, c
    0000208F 4F               [ 4] 5872 	ld	c, a
    00002090 3E 00            [ 7] 5873 	ld	a, #0x00
    00002092 98               [ 4] 5874 	sbc	a, b
    00002093 47               [ 4] 5875 	ld	b, a
    00002094 21 00 00         [10] 5876 	ld	hl, #0x0000
    00002097 ED 52            [15] 5877 	sbc	hl, de
    00002099 EB               [ 4] 5878 	ex	de, hl
    0000209A                       5879 00106$:
                                   5880 ;video.c:768: uint8_t started = 0; // Per non stampare gli zeri iniziali (es: 0000032768)
    0000209A DD 36 FD 00      [19] 5881 	ld	-3 (ix), #0x00
                                   5882 ;video.c:770: for (uint8_t i = 0; i < 10; i++) {
    0000209E DD 36 FF 00      [19] 5883 	ld	-1 (ix), #0x00
    000020A2                       5884 00116$:
    000020A2 DD 7E FF         [19] 5885 	ld	a, -1 (ix)
    000020A5 D6 0A            [ 7] 5886 	sub	a, #0x0a
    000020A7 D2r37r21         [10] 5887 	jp	NC, 00118$
                                   5888 ;video.c:772: int32_t p = powers10[i];
    000020AA DD 6E FF         [19] 5889 	ld	l, -1 (ix)
    000020AD 26 00            [ 7] 5890 	ld	h, #0x00
    000020AF 29               [11] 5891 	add	hl, hl
    000020B0 29               [11] 5892 	add	hl, hl
    000020B1 FD 21r3Cr21      [14] 5893 	ld	iy, #_vga_print_int_safe_powers10_10000_258
    000020B5 C5               [11] 5894 	push	bc
    000020B6 4D               [ 4] 5895 	ld	c, l
    000020B7 44               [ 4] 5896 	ld	b, h
    000020B8 FD 09            [15] 5897 	add	iy, bc
    000020BA C1               [10] 5898 	pop	bc
    000020BB FD 7E 00         [19] 5899 	ld	a, 0 (iy)
    000020BE DD 77 F7         [19] 5900 	ld	-9 (ix), a
    000020C1 FD 7E 01         [19] 5901 	ld	a, 1 (iy)
    000020C4 DD 77 F8         [19] 5902 	ld	-8 (ix), a
    000020C7 FD 7E 02         [19] 5903 	ld	a, 2 (iy)
    000020CA DD 77 F9         [19] 5904 	ld	-7 (ix), a
    000020CD FD 7E 03         [19] 5905 	ld	a, 3 (iy)
    000020D0 DD 77 FA         [19] 5906 	ld	-6 (ix), a
                                   5907 ;video.c:776: while (num >= p) {
    000020D3 2E 00            [ 7] 5908 	ld	l, #0x00
    000020D5                       5909 00107$:
    000020D5 79               [ 4] 5910 	ld	a, c
    000020D6 DD 96 F7         [19] 5911 	sub	a, -9 (ix)
    000020D9 78               [ 4] 5912 	ld	a, b
    000020DA DD 9E F8         [19] 5913 	sbc	a, -8 (ix)
    000020DD 7B               [ 4] 5914 	ld	a, e
    000020DE DD 9E F9         [19] 5915 	sbc	a, -7 (ix)
    000020E1 7A               [ 4] 5916 	ld	a, d
    000020E2 DD 9E FA         [19] 5917 	sbc	a, -6 (ix)
    000020E5 E2rEAr20         [10] 5918 	jp	PO, 00187$
    000020E8 EE 80            [ 7] 5919 	xor	a, #0x80
    000020EA                       5920 00187$:
    000020EA FAr04r21         [10] 5921 	jp	M, 00129$
                                   5922 ;video.c:777: num -= p;
    000020ED 79               [ 4] 5923 	ld	a, c
    000020EE DD 96 F7         [19] 5924 	sub	a, -9 (ix)
    000020F1 4F               [ 4] 5925 	ld	c, a
    000020F2 78               [ 4] 5926 	ld	a, b
    000020F3 DD 9E F8         [19] 5927 	sbc	a, -8 (ix)
    000020F6 47               [ 4] 5928 	ld	b, a
    000020F7 7B               [ 4] 5929 	ld	a, e
    000020F8 DD 9E F9         [19] 5930 	sbc	a, -7 (ix)
    000020FB 5F               [ 4] 5931 	ld	e, a
    000020FC 7A               [ 4] 5932 	ld	a, d
    000020FD DD 9E FA         [19] 5933 	sbc	a, -6 (ix)
    00002100 57               [ 4] 5934 	ld	d, a
                                   5935 ;video.c:778: digit++;
    00002101 2C               [ 4] 5936 	inc	l
    00002102 18 D1            [12] 5937 	jr	00107$
    00002104                       5938 00129$:
    00002104 DD 75 FE         [19] 5939 	ld	-2 (ix), l
                                   5940 ;video.c:781: if (digit > 0 || started || i == 9) {
    00002107 7D               [ 4] 5941 	ld	a, l
    00002108 B7               [ 4] 5942 	or	a, a
    00002109 20 0D            [12] 5943 	jr	NZ, 00110$
    0000210B DD 7E FD         [19] 5944 	ld	a, -3 (ix)
    0000210E B7               [ 4] 5945 	or	a, a
    0000210F 20 07            [12] 5946 	jr	NZ, 00110$
    00002111 DD 7E FF         [19] 5947 	ld	a, -1 (ix)
    00002114 D6 09            [ 7] 5948 	sub	a, #0x09
    00002116 20 19            [12] 5949 	jr	NZ, 00117$
    00002118                       5950 00110$:
                                   5951 ;video.c:783: c[0] = digit + '0';
    00002118 21 04 00         [10] 5952 	ld	hl, #4
    0000211B 39               [11] 5953 	add	hl, sp
    0000211C DD 7E FE         [19] 5954 	ld	a, -2 (ix)
    0000211F C6 30            [ 7] 5955 	add	a, #0x30
    00002121 77               [ 7] 5956 	ld	(hl), a
                                   5957 ;video.c:784: c[1] = '\0';
    00002122 DD 36 FC 00      [19] 5958 	ld	-4 (ix), #0x00
                                   5959 ;video.c:785: vga_Print(c);
    00002126 C5               [11] 5960 	push	bc
    00002127 D5               [11] 5961 	push	de
    00002128 CDr79r1D         [17] 5962 	call	_vga_Print
    0000212B D1               [10] 5963 	pop	de
    0000212C C1               [10] 5964 	pop	bc
                                   5965 ;video.c:786: started = 1; // Da qui in poi stampiamo anche gli zeri (es: 102)
    0000212D DD 36 FD 01      [19] 5966 	ld	-3 (ix), #0x01
    00002131                       5967 00117$:
                                   5968 ;video.c:770: for (uint8_t i = 0; i < 10; i++) {
    00002131 DD 34 FF         [23] 5969 	inc	-1 (ix)
    00002134 C3rA2r20         [10] 5970 	jp	00116$
    00002137                       5971 00118$:
                                   5972 ;video.c:789: }
    00002137 DD F9            [10] 5973 	ld	sp, ix
    00002139 DD E1            [14] 5974 	pop	ix
    0000213B C9               [10] 5975 	ret
    0000213C                       5976 _vga_print_int_safe_powers10_10000_258:
    0000213C 00 CA 9A 3B           5977 	.byte #0x00, #0xca, #0x9a, #0x3b	;  1000000000
    00002140 00 E1 F5 05           5978 	.byte #0x00, #0xe1, #0xf5, #0x05	;  100000000
    00002144 80 96 98 00           5979 	.byte #0x80, #0x96, #0x98, #0x00	;  10000000
    00002148 40 42 0F 00           5980 	.byte #0x40, #0x42, #0x0f, #0x00	;  1000000
    0000214C A0 86 01 00           5981 	.byte #0xa0, #0x86, #0x01, #0x00	;  100000
    00002150 10 27 00 00           5982 	.byte #0x10, #0x27, #0x00, #0x00	;  10000
    00002154 E8 03 00 00           5983 	.byte #0xe8, #0x03, #0x00, #0x00	;  1000
    00002158 64 00 00 00           5984 	.byte #0x64, #0x00, #0x00, #0x00	;  100
    0000215C 0A 00 00 00           5985 	.byte #0x0a, #0x00, #0x00, #0x00	;  10
    00002160 01 00 00 00           5986 	.byte #0x01, #0x00, #0x00, #0x00	;  1
    00002164                       5987 ___str_8:
    00002164 30                    5988 	.ascii "0"
    00002165 00                    5989 	.db 0x00
    00002166                       5990 ___str_9:
    00002166 2D                    5991 	.ascii "-"
    00002167 00                    5992 	.db 0x00
    00002168                       5993 ___str_10:
    00002168 32 31 34 37 34 38 33  5994 	.ascii "2147483648"
             36 34 38
    00002172 00                    5995 	.db 0x00
                                   5996 ;video.c:795: size_t vga_write(uint8_t uniCode)
                                   5997 ;	---------------------------------
                                   5998 ; Function vga_write
                                   5999 ; ---------------------------------
    00002173                       6000 _vga_write::
    00002173 DD E5            [15] 6001 	push	ix
    00002175 DD 21 00 00      [14] 6002 	ld	ix,#0
    00002179 DD 39            [15] 6003 	add	ix,sp
    0000217B 21 F5 FF         [10] 6004 	ld	hl, #-11
    0000217E 39               [11] 6005 	add	hl, sp
    0000217F F9               [ 6] 6006 	ld	sp, hl
                                   6007 ;video.c:798: if (uniCode == '\r') return 1;
    00002180 DD 77 FF         [19] 6008 	ld	-1 (ix), a
    00002183 D6 0D            [ 7] 6009 	sub	a, #0x0d
    00002185 20 06            [12] 6010 	jr	NZ, 00102$
    00002187 11 01 00         [10] 6011 	ld	de, #0x0001
    0000218A C3r31r23         [10] 6012 	jp	00113$
    0000218D                       6013 00102$:
                                   6014 ;video.c:800: unsigned int width = 0;
    0000218D 21 00 00         [10] 6015 	ld	hl, #0x0000
    00002190 E3               [19] 6016 	ex	(sp), hl
                                   6017 ;video.c:801: unsigned int height = 0;
    00002191 AF               [ 4] 6018 	xor	a, a
    00002192 DD 77 FD         [19] 6019 	ld	-3 (ix), a
    00002195 DD 77 FE         [19] 6020 	ld	-2 (ix), a
                                   6021 ;video.c:804: if (textfont == 2)
    00002198 3Ar14r00         [13] 6022 	ld	a, (_textfont+0)
    0000219B D6 02            [ 7] 6023 	sub	a, #0x02
    0000219D 20 79            [12] 6024 	jr	NZ, 00104$
                                   6025 ;video.c:807: width = widtbl_f16[uniCode - 32];
    0000219F DD 7E FF         [19] 6026 	ld	a, -1 (ix)
    000021A2 DD 77 FE         [19] 6027 	ld	-2 (ix), a
    000021A5 C6 E0            [ 7] 6028 	add	a, #0xe0
    000021A7 DD 77 FE         [19] 6029 	ld	-2 (ix), a
    000021AA DD 77 FB         [19] 6030 	ld	-5 (ix), a
    000021AD 07               [ 4] 6031 	rlca
    000021AE 9F               [ 4] 6032 	sbc	a, a
    000021AF DD 77 FC         [19] 6033 	ld	-4 (ix), a
    000021B2 3Er74            [ 7] 6034 	ld	a, #<(_widtbl_f16)
    000021B4 DD 86 FB         [19] 6035 	add	a, -5 (ix)
    000021B7 DD 77 FD         [19] 6036 	ld	-3 (ix), a
    000021BA 3Es06            [ 7] 6037 	ld	a, #>(_widtbl_f16)
    000021BC DD 8E FC         [19] 6038 	adc	a, -4 (ix)
    000021BF DD 77 FE         [19] 6039 	ld	-2 (ix), a
    000021C2 DD 6E FD         [19] 6040 	ld	l, -3 (ix)
    000021C5 DD 66 FE         [19] 6041 	ld	h, -2 (ix)
    000021C8 7E               [ 7] 6042 	ld	a, (hl)
    000021C9 DD 77 FE         [19] 6043 	ld	-2 (ix), a
    000021CC DD 77 F9         [19] 6044 	ld	-7 (ix), a
    000021CF DD 36 FA 00      [19] 6045 	ld	-6 (ix), #0x00
                                   6046 ;video.c:808: height = chr_hgt_f16;
    000021D3 DD 36 FD 10      [19] 6047 	ld	-3 (ix), #0x10
    000021D7 DD 36 FE 00      [19] 6048 	ld	-2 (ix), #0
                                   6049 ;video.c:810: width = (width + 6) / 8;
    000021DB DD 7E F9         [19] 6050 	ld	a, -7 (ix)
    000021DE C6 06            [ 7] 6051 	add	a, #0x06
    000021E0 DD 77 FB         [19] 6052 	ld	-5 (ix), a
    000021E3 3E 00            [ 7] 6053 	ld	a, #0x00
    000021E5 CE 00            [ 7] 6054 	adc	a, #0x00
    000021E7 DD 77 FC         [19] 6055 	ld	-4 (ix), a
    000021EA DD CB FC 3E      [23] 6056 	srl	-4 (ix)
    000021EE DD CB FB 1E      [23] 6057 	rr	-5 (ix)
    000021F2 DD CB FC 3E      [23] 6058 	srl	-4 (ix)
    000021F6 DD CB FB 1E      [23] 6059 	rr	-5 (ix)
    000021FA DD CB FC 3E      [23] 6060 	srl	-4 (ix)
    000021FE DD CB FB 1E      [23] 6061 	rr	-5 (ix)
                                   6062 ;video.c:811: width = width * 8; 
    00002202 DD 7E FB         [19] 6063 	ld	a, -5 (ix)
    00002205 DD 77 F5         [19] 6064 	ld	-11 (ix), a
    00002208 DD 36 F6 00      [19] 6065 	ld	-10 (ix), #0x00
    0000220C 06 03            [ 7] 6066 	ld	b, #0x03
    0000220E                       6067 00161$:
    0000220E DD CB F5 26      [23] 6068 	sla	-11 (ix)
    00002212 DD CB F6 16      [23] 6069 	rl	-10 (ix)
    00002216 10 F6            [13] 6070 	djnz	00161$
    00002218                       6071 00104$:
                                   6072 ;video.c:827: if (textfont == 1)
    00002218 3Ar14r00         [13] 6073 	ld	a, (_textfont+0)
    0000221B 3D               [ 4] 6074 	dec	a
    0000221C 20 0C            [12] 6075 	jr	NZ, 00106$
                                   6076 ;video.c:829: width = 6;
    0000221E 21 06 00         [10] 6077 	ld	hl, #0x0006
    00002221 E3               [19] 6078 	ex	(sp), hl
                                   6079 ;video.c:830: height = 8;
    00002222 DD 36 FD 08      [19] 6080 	ld	-3 (ix), #0x08
    00002226 DD 36 FE 00      [19] 6081 	ld	-2 (ix), #0
    0000222A                       6082 00106$:
                                   6083 ;video.c:837: height = height * textsize;
    0000222A 3Ar15r00         [13] 6084 	ld	a, (_textsize+0)
    0000222D DD 77 F7         [19] 6085 	ld	-9 (ix), a
    00002230 DD 36 F8 00      [19] 6086 	ld	-8 (ix), #0x00
    00002234 E1               [10] 6087 	pop	hl
    00002235 D1               [10] 6088 	pop	de
    00002236 D5               [11] 6089 	push	de
    00002237 E5               [11] 6090 	push	hl
    00002238 DD 6E FD         [19] 6091 	ld	l, -3 (ix)
    0000223B 26 00            [ 7] 6092 	ld	h, #0x00
                                   6093 ;video.c:841: cursor_y += height;
    0000223D CDr00r00         [17] 6094 	call	__mulint
    00002240 DD 73 F9         [19] 6095 	ld	-7 (ix), e
    00002243 DD 72 FA         [19] 6096 	ld	-6 (ix), d
    00002246 2Ar0Cr00         [16] 6097 	ld	hl, (_cursor_y)
    00002249 DD 75 FB         [19] 6098 	ld	-5 (ix), l
    0000224C DD 74 FC         [19] 6099 	ld	-4 (ix), h
    0000224F DD 7E FB         [19] 6100 	ld	a, -5 (ix)
    00002252 DD 86 F9         [19] 6101 	add	a, -7 (ix)
    00002255 DD 77 FD         [19] 6102 	ld	-3 (ix), a
    00002258 DD 7E FC         [19] 6103 	ld	a, -4 (ix)
    0000225B DD 8E FA         [19] 6104 	adc	a, -6 (ix)
    0000225E DD 77 FE         [19] 6105 	ld	-2 (ix), a
                                   6106 ;video.c:840: if (uniCode == '\n') {
    00002261 DD 7E FF         [19] 6107 	ld	a, -1 (ix)
    00002264 D6 0A            [ 7] 6108 	sub	a, #0x0a
    00002266 20 12            [12] 6109 	jr	NZ, 00111$
                                   6110 ;video.c:841: cursor_y += height;
    00002268 DD 6E FD         [19] 6111 	ld	l, -3 (ix)
    0000226B DD 66 FE         [19] 6112 	ld	h, -2 (ix)
    0000226E 22r0Cr00         [16] 6113 	ld	(_cursor_y), hl
                                   6114 ;video.c:842: cursor_x  = 0;
    00002271 21 00 00         [10] 6115 	ld	hl, #0x0000
    00002274 22r0Ar00         [16] 6116 	ld	(_cursor_x), hl
    00002277 C3r2Er23         [10] 6117 	jp	00112$
    0000227A                       6118 00111$:
                                   6119 ;video.c:848: if (textwrap && (cursor_x + width * textsize >= 640))
    0000227A 21r05r00         [10] 6120 	ld	hl, #_textwrap
    0000227D CB 46            [12] 6121 	bit	0, (hl)
    0000227F 28 43            [12] 6122 	jr	Z, 00108$
    00002281 E1               [10] 6123 	pop	hl
    00002282 D1               [10] 6124 	pop	de
    00002283 D5               [11] 6125 	push	de
    00002284 E5               [11] 6126 	push	hl
    00002285 CDr00r00         [17] 6127 	call	__mulint
    00002288 DD 73 F7         [19] 6128 	ld	-9 (ix), e
    0000228B DD 72 F8         [19] 6129 	ld	-8 (ix), d
    0000228E 2Ar0Ar00         [16] 6130 	ld	hl, (_cursor_x)
    00002291 DD 75 F9         [19] 6131 	ld	-7 (ix), l
    00002294 DD 74 FA         [19] 6132 	ld	-6 (ix), h
    00002297 DD 7E F9         [19] 6133 	ld	a, -7 (ix)
    0000229A DD 86 F7         [19] 6134 	add	a, -9 (ix)
    0000229D DD 77 FB         [19] 6135 	ld	-5 (ix), a
    000022A0 DD 7E FA         [19] 6136 	ld	a, -6 (ix)
    000022A3 DD 8E F8         [19] 6137 	adc	a, -8 (ix)
    000022A6 DD 77 FC         [19] 6138 	ld	-4 (ix), a
    000022A9 DD 7E FB         [19] 6139 	ld	a, -5 (ix)
    000022AC D6 80            [ 7] 6140 	sub	a, #0x80
    000022AE DD 7E FC         [19] 6141 	ld	a, -4 (ix)
    000022B1 DE 02            [ 7] 6142 	sbc	a, #0x02
    000022B3 38 0F            [12] 6143 	jr	C, 00108$
                                   6144 ;video.c:850: cursor_y += height;
    000022B5 DD 6E FD         [19] 6145 	ld	l, -3 (ix)
    000022B8 DD 66 FE         [19] 6146 	ld	h, -2 (ix)
    000022BB 22r0Cr00         [16] 6147 	ld	(_cursor_y), hl
                                   6148 ;video.c:851: cursor_x = 0;
    000022BE 21 00 00         [10] 6149 	ld	hl, #0x0000
    000022C1 22r0Ar00         [16] 6150 	ld	(_cursor_x), hl
    000022C4                       6151 00108$:
                                   6152 ;video.c:857: cursor_x += vga_drawChar(uniCode, cursor_x, cursor_y, textfont);
    000022C4 3Ar14r00         [13] 6153 	ld	a, (_textfont+0)
    000022C7 DD 77 F7         [19] 6154 	ld	-9 (ix), a
    000022CA DD 36 F8 00      [19] 6155 	ld	-8 (ix), #0x00
    000022CE 2Ar0Cr00         [16] 6156 	ld	hl, (_cursor_y)
    000022D1 DD 75 F9         [19] 6157 	ld	-7 (ix), l
    000022D4 DD 74 FA         [19] 6158 	ld	-6 (ix), h
    000022D7 2Ar0Ar00         [16] 6159 	ld	hl, (_cursor_x)
    000022DA DD 75 FB         [19] 6160 	ld	-5 (ix), l
    000022DD DD 74 FC         [19] 6161 	ld	-4 (ix), h
    000022E0 DD 7E FF         [19] 6162 	ld	a, -1 (ix)
    000022E3 DD 77 FD         [19] 6163 	ld	-3 (ix), a
    000022E6 DD 36 FE 00      [19] 6164 	ld	-2 (ix), #0x00
    000022EA D1               [10] 6165 	pop	de
    000022EB E1               [10] 6166 	pop	hl
    000022EC E5               [11] 6167 	push	hl
    000022ED D5               [11] 6168 	push	de
    000022EE E5               [11] 6169 	push	hl
    000022EF DD 6E F9         [19] 6170 	ld	l, -7 (ix)
    000022F2 DD 66 FA         [19] 6171 	ld	h, -6 (ix)
    000022F5 E5               [11] 6172 	push	hl
    000022F6 DD 5E FB         [19] 6173 	ld	e, -5 (ix)
    000022F9 DD 56 FC         [19] 6174 	ld	d, -4 (ix)
    000022FC DD 6E FD         [19] 6175 	ld	l, -3 (ix)
    000022FF 26 00            [ 7] 6176 	ld	h, #0x00
    00002301 CDrF0r0D         [17] 6177 	call	_vga_drawChar
    00002304 DD 73 F9         [19] 6178 	ld	-7 (ix), e
    00002307 DD 72 FA         [19] 6179 	ld	-6 (ix), d
    0000230A 2Ar0Ar00         [16] 6180 	ld	hl, (_cursor_x)
    0000230D DD 75 FB         [19] 6181 	ld	-5 (ix), l
    00002310 DD 74 FC         [19] 6182 	ld	-4 (ix), h
    00002313 DD 7E FB         [19] 6183 	ld	a, -5 (ix)
    00002316 DD 86 F9         [19] 6184 	add	a, -7 (ix)
    00002319 DD 77 FD         [19] 6185 	ld	-3 (ix), a
    0000231C DD 7E FC         [19] 6186 	ld	a, -4 (ix)
    0000231F DD 8E FA         [19] 6187 	adc	a, -6 (ix)
    00002322 DD 77 FE         [19] 6188 	ld	-2 (ix), a
    00002325 DD 6E FD         [19] 6189 	ld	l, -3 (ix)
    00002328 DD 66 FE         [19] 6190 	ld	h, -2 (ix)
    0000232B 22r0Ar00         [16] 6191 	ld	(_cursor_x), hl
    0000232E                       6192 00112$:
                                   6193 ;video.c:860: return 1;
    0000232E 11 01 00         [10] 6194 	ld	de, #0x0001
    00002331                       6195 00113$:
                                   6196 ;video.c:861: }
    00002331 DD F9            [10] 6197 	ld	sp, ix
    00002333 DD E1            [14] 6198 	pop	ix
    00002335 C9               [10] 6199 	ret
                                   6200 ;video.c:863: void vga_drawLine_Clipped(uint16_t x1, uint16_t y1, uint16_t x2, uint16_t y2, uint16_t color, uint16_t y_min, uint16_t y_max) {
                                   6201 ;	---------------------------------
                                   6202 ; Function vga_drawLine_Clipped
                                   6203 ; ---------------------------------
    00002336                       6204 _vga_drawLine_Clipped::
    00002336 DD E5            [15] 6205 	push	ix
    00002338 DD 21 00 00      [14] 6206 	ld	ix,#0
    0000233C DD 39            [15] 6207 	add	ix,sp
    0000233E FD 21 E9 FF      [14] 6208 	ld	iy, #-23
    00002342 FD 39            [15] 6209 	add	iy, sp
    00002344 FD F9            [10] 6210 	ld	sp, iy
    00002346 DD 75 F8         [19] 6211 	ld	-8 (ix), l
    00002349 DD 74 F9         [19] 6212 	ld	-7 (ix), h
    0000234C DD 73 F6         [19] 6213 	ld	-10 (ix), e
    0000234F DD 72 F7         [19] 6214 	ld	-9 (ix), d
                                   6215 ;video.c:867: int16_t startY = (y1 < y2 ? y1 : y2);
    00002352 DD 7E 06         [19] 6216 	ld	a, 6 (ix)
    00002355 DD 77 EE         [19] 6217 	ld	-18 (ix), a
    00002358 DD 7E 07         [19] 6218 	ld	a, 7 (ix)
    0000235B DD 77 EF         [19] 6219 	ld	-17 (ix), a
                                   6220 ;video.c:865: if (x1 == x2) {
    0000235E DD 7E 04         [19] 6221 	ld	a, 4 (ix)
    00002361 DD 96 F8         [19] 6222 	sub	a, -8 (ix)
    00002364 C2r34r24         [10] 6223 	jp	NZ, 00108$
    00002367 DD 7E 05         [19] 6224 	ld	a, 5 (ix)
    0000236A DD 96 F9         [19] 6225 	sub	a, -7 (ix)
    0000236D C2r34r24         [10] 6226 	jp	NZ, 00108$
                                   6227 ;video.c:867: int16_t startY = (y1 < y2 ? y1 : y2);
    00002370 DD 7E F6         [19] 6228 	ld	a, -10 (ix)
    00002373 DD 96 06         [19] 6229 	sub	a, 6 (ix)
    00002376 DD 7E F7         [19] 6230 	ld	a, -9 (ix)
    00002379 DD 9E 07         [19] 6231 	sbc	a, 7 (ix)
    0000237C 30 0E            [12] 6232 	jr	NC, 00129$
    0000237E DD 7E F6         [19] 6233 	ld	a, -10 (ix)
    00002381 DD 77 FE         [19] 6234 	ld	-2 (ix), a
    00002384 DD 7E F7         [19] 6235 	ld	a, -9 (ix)
    00002387 DD 77 FF         [19] 6236 	ld	-1 (ix), a
    0000238A 18 0C            [12] 6237 	jr	00130$
    0000238C                       6238 00129$:
    0000238C DD 7E EE         [19] 6239 	ld	a, -18 (ix)
    0000238F DD 77 FE         [19] 6240 	ld	-2 (ix), a
    00002392 DD 7E EF         [19] 6241 	ld	a, -17 (ix)
    00002395 DD 77 FF         [19] 6242 	ld	-1 (ix), a
    00002398                       6243 00130$:
    00002398 DD 7E FE         [19] 6244 	ld	a, -2 (ix)
    0000239B DD 77 FC         [19] 6245 	ld	-4 (ix), a
    0000239E DD 7E FF         [19] 6246 	ld	a, -1 (ix)
    000023A1 DD 77 FD         [19] 6247 	ld	-3 (ix), a
                                   6248 ;video.c:868: int16_t endY = (y1 > y2 ? y1 : y2);
    000023A4 DD 7E 06         [19] 6249 	ld	a, 6 (ix)
    000023A7 DD 96 F6         [19] 6250 	sub	a, -10 (ix)
    000023AA DD 7E 07         [19] 6251 	ld	a, 7 (ix)
    000023AD DD 9E F7         [19] 6252 	sbc	a, -9 (ix)
    000023B0 30 0E            [12] 6253 	jr	NC, 00131$
    000023B2 DD 7E F6         [19] 6254 	ld	a, -10 (ix)
    000023B5 DD 77 FE         [19] 6255 	ld	-2 (ix), a
    000023B8 DD 7E F7         [19] 6256 	ld	a, -9 (ix)
    000023BB DD 77 FF         [19] 6257 	ld	-1 (ix), a
    000023BE 18 0C            [12] 6258 	jr	00132$
    000023C0                       6259 00131$:
    000023C0 DD 7E EE         [19] 6260 	ld	a, -18 (ix)
    000023C3 DD 77 FE         [19] 6261 	ld	-2 (ix), a
    000023C6 DD 7E EF         [19] 6262 	ld	a, -17 (ix)
    000023C9 DD 77 FF         [19] 6263 	ld	-1 (ix), a
    000023CC                       6264 00132$:
    000023CC DD 4E FE         [19] 6265 	ld	c, -2 (ix)
    000023CF DD 46 FF         [19] 6266 	ld	b, -1 (ix)
                                   6267 ;video.c:870: if (startY < y_min) startY = y_min;
    000023D2 DD 7E FC         [19] 6268 	ld	a, -4 (ix)
    000023D5 DD 56 FD         [19] 6269 	ld	d, -3 (ix)
    000023D8 DD 96 0A         [19] 6270 	sub	a, 10 (ix)
    000023DB 7A               [ 4] 6271 	ld	a, d
    000023DC DD 9E 0B         [19] 6272 	sbc	a, 11 (ix)
    000023DF 30 0C            [12] 6273 	jr	NC, 00102$
    000023E1 DD 7E 0A         [19] 6274 	ld	a, 10 (ix)
    000023E4 DD 77 FC         [19] 6275 	ld	-4 (ix), a
    000023E7 DD 7E 0B         [19] 6276 	ld	a, 11 (ix)
    000023EA DD 77 FD         [19] 6277 	ld	-3 (ix), a
    000023ED                       6278 00102$:
                                   6279 ;video.c:871: if (endY > y_max)   endY = y_max;
    000023ED 59               [ 4] 6280 	ld	e, c
    000023EE 50               [ 4] 6281 	ld	d, b
    000023EF DD 7E 0C         [19] 6282 	ld	a, 12 (ix)
    000023F2 93               [ 4] 6283 	sub	a, e
    000023F3 DD 7E 0D         [19] 6284 	ld	a, 13 (ix)
    000023F6 9A               [ 4] 6285 	sbc	a, d
    000023F7 30 06            [12] 6286 	jr	NC, 00104$
    000023F9 DD 4E 0C         [19] 6287 	ld	c, 12 (ix)
    000023FC DD 46 0D         [19] 6288 	ld	b, 13 (ix)
    000023FF                       6289 00104$:
                                   6290 ;video.c:873: if (startY <= endY) {
    000023FF 79               [ 4] 6291 	ld	a, c
    00002400 DD 96 FC         [19] 6292 	sub	a, -4 (ix)
    00002403 78               [ 4] 6293 	ld	a, b
    00002404 DD 9E FD         [19] 6294 	sbc	a, -3 (ix)
    00002407 E2r0Cr24         [10] 6295 	jp	PO, 00292$
    0000240A EE 80            [ 7] 6296 	xor	a, #0x80
    0000240C                       6297 00292$:
    0000240C FAr4Br27         [10] 6298 	jp	M, 00127$
                                   6299 ;video.c:874: vga_drawFastVLine(x1, startY, (endY - startY) + 1, color);
    0000240F 79               [ 4] 6300 	ld	a, c
    00002410 DD 96 FC         [19] 6301 	sub	a, -4 (ix)
    00002413 4F               [ 4] 6302 	ld	c, a
    00002414 78               [ 4] 6303 	ld	a, b
    00002415 DD 9E FD         [19] 6304 	sbc	a, -3 (ix)
    00002418 47               [ 4] 6305 	ld	b, a
    00002419 03               [ 6] 6306 	inc	bc
    0000241A DD 6E 08         [19] 6307 	ld	l, 8 (ix)
    0000241D DD 66 09         [19] 6308 	ld	h, 9 (ix)
    00002420 E5               [11] 6309 	push	hl
    00002421 C5               [11] 6310 	push	bc
    00002422 DD 5E FC         [19] 6311 	ld	e, -4 (ix)
    00002425 DD 56 FD         [19] 6312 	ld	d, -3 (ix)
    00002428 DD 6E F8         [19] 6313 	ld	l, -8 (ix)
    0000242B DD 66 F9         [19] 6314 	ld	h, -7 (ix)
    0000242E CDrE3r13         [17] 6315 	call	_vga_drawFastVLine
                                   6316 ;video.c:876: return;
    00002431 C3r4Br27         [10] 6317 	jp	00127$
    00002434                       6318 00108$:
                                   6319 ;video.c:882: vga_drawFastHLine((x1 < x2 ? x1 : x2), y1, abs((int16_t)x2 - (int16_t)x1) + 1, color);
    00002434 DD 7E 04         [19] 6320 	ld	a, 4 (ix)
    00002437 DD 77 F0         [19] 6321 	ld	-16 (ix), a
    0000243A DD 7E 05         [19] 6322 	ld	a, 5 (ix)
    0000243D DD 77 F1         [19] 6323 	ld	-15 (ix), a
                                   6324 ;video.c:879: if (y1 == y2) {
    00002440 DD 7E 06         [19] 6325 	ld	a, 6 (ix)
    00002443 DD 96 F6         [19] 6326 	sub	a, -10 (ix)
    00002446 20 69            [12] 6327 	jr	NZ, 00113$
    00002448 DD 7E 07         [19] 6328 	ld	a, 7 (ix)
    0000244B DD 96 F7         [19] 6329 	sub	a, -9 (ix)
    0000244E 20 61            [12] 6330 	jr	NZ, 00113$
                                   6331 ;video.c:881: if (y1 >= y_min && y1 <= y_max) {
    00002450 DD 7E F6         [19] 6332 	ld	a, -10 (ix)
    00002453 DD 96 0A         [19] 6333 	sub	a, 10 (ix)
    00002456 DD 7E F7         [19] 6334 	ld	a, -9 (ix)
    00002459 DD 9E 0B         [19] 6335 	sbc	a, 11 (ix)
    0000245C DAr4Br27         [10] 6336 	jp	C, 00127$
    0000245F DD 7E 0C         [19] 6337 	ld	a, 12 (ix)
    00002462 DD 96 F6         [19] 6338 	sub	a, -10 (ix)
    00002465 DD 7E 0D         [19] 6339 	ld	a, 13 (ix)
    00002468 DD 9E F7         [19] 6340 	sbc	a, -9 (ix)
    0000246B DAr4Br27         [10] 6341 	jp	C, 00127$
                                   6342 ;video.c:882: vga_drawFastHLine((x1 < x2 ? x1 : x2), y1, abs((int16_t)x2 - (int16_t)x1) + 1, color);
    0000246E DD 6E 04         [19] 6343 	ld	l, 4 (ix)
    00002471 DD 66 05         [19] 6344 	ld	h, 5 (ix)
    00002474 DD 4E F8         [19] 6345 	ld	c, -8 (ix)
    00002477 DD 46 F9         [19] 6346 	ld	b, -7 (ix)
    0000247A BF               [ 4] 6347 	cp	a, a
    0000247B ED 42            [15] 6348 	sbc	hl, bc
    0000247D CDr00r00         [17] 6349 	call	_abs
    00002480 13               [ 6] 6350 	inc	de
    00002481 DD 7E F8         [19] 6351 	ld	a, -8 (ix)
    00002484 DD 96 04         [19] 6352 	sub	a, 4 (ix)
    00002487 DD 7E F9         [19] 6353 	ld	a, -7 (ix)
    0000248A DD 9E 05         [19] 6354 	sbc	a, 5 (ix)
    0000248D 30 08            [12] 6355 	jr	NC, 00133$
    0000248F DD 6E F8         [19] 6356 	ld	l, -8 (ix)
    00002492 DD 66 F9         [19] 6357 	ld	h, -7 (ix)
    00002495 18 06            [12] 6358 	jr	00134$
    00002497                       6359 00133$:
    00002497 DD 6E F0         [19] 6360 	ld	l, -16 (ix)
    0000249A DD 66 F1         [19] 6361 	ld	h, -15 (ix)
    0000249D                       6362 00134$:
    0000249D DD 4E 08         [19] 6363 	ld	c, 8 (ix)
    000024A0 DD 46 09         [19] 6364 	ld	b, 9 (ix)
    000024A3 C5               [11] 6365 	push	bc
    000024A4 D5               [11] 6366 	push	de
    000024A5 DD 5E F6         [19] 6367 	ld	e, -10 (ix)
    000024A8 DD 56 F7         [19] 6368 	ld	d, -9 (ix)
    000024AB CDr16r13         [17] 6369 	call	_vga_drawFastHLine
                                   6370 ;video.c:884: return;
    000024AE C3r4Br27         [10] 6371 	jp	00127$
    000024B1                       6372 00113$:
                                   6373 ;video.c:888: int16_t x = x1;
    000024B1 DD 7E F8         [19] 6374 	ld	a, -8 (ix)
    000024B4 DD 77 FE         [19] 6375 	ld	-2 (ix), a
    000024B7 DD 7E F9         [19] 6376 	ld	a, -7 (ix)
    000024BA DD 77 FF         [19] 6377 	ld	-1 (ix), a
                                   6378 ;video.c:889: int16_t y = y1;
    000024BD DD 7E F6         [19] 6379 	ld	a, -10 (ix)
    000024C0 DD 77 FA         [19] 6380 	ld	-6 (ix), a
    000024C3 DD 7E F7         [19] 6381 	ld	a, -9 (ix)
    000024C6 DD 77 FB         [19] 6382 	ld	-5 (ix), a
                                   6383 ;video.c:890: int16_t x_fine = x2;
    000024C9 DD 7E F0         [19] 6384 	ld	a, -16 (ix)
    000024CC DD 77 E9         [19] 6385 	ld	-23 (ix), a
    000024CF DD 7E F1         [19] 6386 	ld	a, -15 (ix)
    000024D2 DD 77 EA         [19] 6387 	ld	-22 (ix), a
                                   6388 ;video.c:891: int16_t y_fine = y2;
    000024D5 DD 7E EE         [19] 6389 	ld	a, -18 (ix)
    000024D8 DD 77 F4         [19] 6390 	ld	-12 (ix), a
    000024DB DD 7E EF         [19] 6391 	ld	a, -17 (ix)
    000024DE DD 77 F5         [19] 6392 	ld	-11 (ix), a
                                   6393 ;video.c:893: bool steep = abs(y_fine - y) > abs(x_fine - x);
    000024E1 DD 7E F4         [19] 6394 	ld	a, -12 (ix)
    000024E4 DD 96 F6         [19] 6395 	sub	a, -10 (ix)
    000024E7 DD 77 FC         [19] 6396 	ld	-4 (ix), a
    000024EA DD 7E F5         [19] 6397 	ld	a, -11 (ix)
    000024ED DD 9E F7         [19] 6398 	sbc	a, -9 (ix)
    000024F0 DD 77 FD         [19] 6399 	ld	-3 (ix), a
    000024F3 DD 6E FC         [19] 6400 	ld	l, -4 (ix)
    000024F6 DD 66 FD         [19] 6401 	ld	h, -3 (ix)
    000024F9 CDr00r00         [17] 6402 	call	_abs
    000024FC DD 73 F2         [19] 6403 	ld	-14 (ix), e
    000024FF DD 72 F3         [19] 6404 	ld	-13 (ix), d
    00002502 DD 7E E9         [19] 6405 	ld	a, -23 (ix)
    00002505 DD 96 F8         [19] 6406 	sub	a, -8 (ix)
    00002508 DD 77 FC         [19] 6407 	ld	-4 (ix), a
    0000250B DD 7E EA         [19] 6408 	ld	a, -22 (ix)
    0000250E DD 9E F9         [19] 6409 	sbc	a, -7 (ix)
    00002511 DD 77 FD         [19] 6410 	ld	-3 (ix), a
    00002514 DD 6E FC         [19] 6411 	ld	l, -4 (ix)
    00002517 DD 66 FD         [19] 6412 	ld	h, -3 (ix)
    0000251A CDr00r00         [17] 6413 	call	_abs
    0000251D DD 73 FC         [19] 6414 	ld	-4 (ix), e
    00002520 DD 72 FD         [19] 6415 	ld	-3 (ix), d
    00002523 DD 7E FC         [19] 6416 	ld	a, -4 (ix)
    00002526 DD 96 F2         [19] 6417 	sub	a, -14 (ix)
    00002529 DD 7E FD         [19] 6418 	ld	a, -3 (ix)
    0000252C DD 9E F3         [19] 6419 	sbc	a, -13 (ix)
    0000252F E2r34r25         [10] 6420 	jp	PO, 00295$
    00002532 EE 80            [ 7] 6421 	xor	a, #0x80
    00002534                       6422 00295$:
    00002534 07               [ 4] 6423 	rlca
    00002535 E6 01            [ 7] 6424 	and	a,#0x01
    00002537 DD 77 EB         [19] 6425 	ld	-21 (ix), a
                                   6426 ;video.c:894: if (steep) {
    0000253A DD CB EB 46      [20] 6427 	bit	0, -21 (ix)
    0000253E 28 30            [12] 6428 	jr	Z, 00115$
                                   6429 ;video.c:896: tmp = x; x = y; y = tmp;
    00002540 DD 7E F6         [19] 6430 	ld	a, -10 (ix)
    00002543 DD 77 FE         [19] 6431 	ld	-2 (ix), a
    00002546 DD 7E F7         [19] 6432 	ld	a, -9 (ix)
    00002549 DD 77 FF         [19] 6433 	ld	-1 (ix), a
    0000254C DD 7E F8         [19] 6434 	ld	a, -8 (ix)
    0000254F DD 77 FA         [19] 6435 	ld	-6 (ix), a
    00002552 DD 7E F9         [19] 6436 	ld	a, -7 (ix)
    00002555 DD 77 FB         [19] 6437 	ld	-5 (ix), a
                                   6438 ;video.c:897: tmp = x_fine; x_fine = y_fine; y_fine = tmp;
    00002558 DD 7E F0         [19] 6439 	ld	a, -16 (ix)
    0000255B DD 77 F4         [19] 6440 	ld	-12 (ix), a
    0000255E DD 7E F1         [19] 6441 	ld	a, -15 (ix)
    00002561 DD 77 F5         [19] 6442 	ld	-11 (ix), a
    00002564 DD 7E EE         [19] 6443 	ld	a, -18 (ix)
    00002567 DD 77 E9         [19] 6444 	ld	-23 (ix), a
    0000256A DD 7E EF         [19] 6445 	ld	a, -17 (ix)
    0000256D DD 77 EA         [19] 6446 	ld	-22 (ix), a
    00002570                       6447 00115$:
                                   6448 ;video.c:900: if (x > x_fine) {
    00002570 DD 7E E9         [19] 6449 	ld	a, -23 (ix)
    00002573 DD 96 FE         [19] 6450 	sub	a, -2 (ix)
    00002576 DD 7E EA         [19] 6451 	ld	a, -22 (ix)
    00002579 DD 9E FF         [19] 6452 	sbc	a, -1 (ix)
    0000257C E2r81r25         [10] 6453 	jp	PO, 00296$
    0000257F EE 80            [ 7] 6454 	xor	a, #0x80
    00002581                       6455 00296$:
    00002581 F2rCCr25         [10] 6456 	jp	P, 00117$
                                   6457 ;video.c:902: tmp = x; x = x_fine; x_fine = tmp;
    00002584 DD 7E FE         [19] 6458 	ld	a, -2 (ix)
    00002587 DD 77 FC         [19] 6459 	ld	-4 (ix), a
    0000258A DD 7E FF         [19] 6460 	ld	a, -1 (ix)
    0000258D DD 77 FD         [19] 6461 	ld	-3 (ix), a
    00002590 DD 7E E9         [19] 6462 	ld	a, -23 (ix)
    00002593 DD 77 FE         [19] 6463 	ld	-2 (ix), a
    00002596 DD 7E EA         [19] 6464 	ld	a, -22 (ix)
    00002599 DD 77 FF         [19] 6465 	ld	-1 (ix), a
    0000259C DD 7E FC         [19] 6466 	ld	a, -4 (ix)
    0000259F DD 77 E9         [19] 6467 	ld	-23 (ix), a
    000025A2 DD 7E FD         [19] 6468 	ld	a, -3 (ix)
    000025A5 DD 77 EA         [19] 6469 	ld	-22 (ix), a
                                   6470 ;video.c:903: tmp = y; y = y_fine; y_fine = tmp;
    000025A8 DD 7E FA         [19] 6471 	ld	a, -6 (ix)
    000025AB DD 77 FC         [19] 6472 	ld	-4 (ix), a
    000025AE DD 7E FB         [19] 6473 	ld	a, -5 (ix)
    000025B1 DD 77 FD         [19] 6474 	ld	-3 (ix), a
    000025B4 DD 7E F4         [19] 6475 	ld	a, -12 (ix)
    000025B7 DD 77 FA         [19] 6476 	ld	-6 (ix), a
    000025BA DD 7E F5         [19] 6477 	ld	a, -11 (ix)
    000025BD DD 77 FB         [19] 6478 	ld	-5 (ix), a
    000025C0 DD 7E FC         [19] 6479 	ld	a, -4 (ix)
    000025C3 DD 77 F4         [19] 6480 	ld	-12 (ix), a
    000025C6 DD 7E FD         [19] 6481 	ld	a, -3 (ix)
    000025C9 DD 77 F5         [19] 6482 	ld	-11 (ix), a
    000025CC                       6483 00117$:
                                   6484 ;video.c:906: int16_t dx = x_fine - x;
    000025CC DD 7E E9         [19] 6485 	ld	a, -23 (ix)
    000025CF DD 96 FE         [19] 6486 	sub	a, -2 (ix)
    000025D2 DD 77 EC         [19] 6487 	ld	-20 (ix), a
    000025D5 DD 7E EA         [19] 6488 	ld	a, -22 (ix)
    000025D8 DD 9E FF         [19] 6489 	sbc	a, -1 (ix)
    000025DB DD 77 ED         [19] 6490 	ld	-19 (ix), a
                                   6491 ;video.c:907: int16_t dy = abs(y_fine - y);
    000025DE DD 7E F4         [19] 6492 	ld	a, -12 (ix)
    000025E1 DD 96 FA         [19] 6493 	sub	a, -6 (ix)
    000025E4 4F               [ 4] 6494 	ld	c, a
    000025E5 DD 7E F5         [19] 6495 	ld	a, -11 (ix)
    000025E8 DD 9E FB         [19] 6496 	sbc	a, -5 (ix)
    000025EB DD 71 FC         [19] 6497 	ld	-4 (ix), c
    000025EE DD 77 FD         [19] 6498 	ld	-3 (ix), a
    000025F1 69               [ 4] 6499 	ld	l, c
    000025F2 67               [ 4] 6500 	ld	h, a
    000025F3 CDr00r00         [17] 6501 	call	_abs
    000025F6 DD 73 FC         [19] 6502 	ld	-4 (ix), e
    000025F9 DD 72 FD         [19] 6503 	ld	-3 (ix), d
    000025FC DD 7E FC         [19] 6504 	ld	a, -4 (ix)
    000025FF DD 77 EE         [19] 6505 	ld	-18 (ix), a
    00002602 DD 7E FD         [19] 6506 	ld	a, -3 (ix)
    00002605 DD 77 EF         [19] 6507 	ld	-17 (ix), a
                                   6508 ;video.c:908: int16_t err = dx / 2;
    00002608 DD 7E EC         [19] 6509 	ld	a, -20 (ix)
    0000260B DD 77 F2         [19] 6510 	ld	-14 (ix), a
    0000260E DD 7E ED         [19] 6511 	ld	a, -19 (ix)
    00002611 DD 77 F3         [19] 6512 	ld	-13 (ix), a
    00002614 DD 7E F2         [19] 6513 	ld	a, -14 (ix)
    00002617 DD 77 FC         [19] 6514 	ld	-4 (ix), a
    0000261A DD 7E F3         [19] 6515 	ld	a, -13 (ix)
    0000261D DD 77 FD         [19] 6516 	ld	-3 (ix), a
    00002620 DD CB F3 7E      [20] 6517 	bit	7, -13 (ix)
    00002624 28 10            [12] 6518 	jr	Z, 00135$
    00002626 DD 7E F2         [19] 6519 	ld	a, -14 (ix)
    00002629 C6 01            [ 7] 6520 	add	a, #0x01
    0000262B DD 77 FC         [19] 6521 	ld	-4 (ix), a
    0000262E DD 7E F3         [19] 6522 	ld	a, -13 (ix)
    00002631 CE 00            [ 7] 6523 	adc	a, #0x00
    00002633 DD 77 FD         [19] 6524 	ld	-3 (ix), a
    00002636                       6525 00135$:
    00002636 DD 4E FC         [19] 6526 	ld	c, -4 (ix)
    00002639 DD 46 FD         [19] 6527 	ld	b, -3 (ix)
    0000263C CB 28            [ 8] 6528 	sra	b
    0000263E CB 19            [ 8] 6529 	rr	c
    00002640 DD 71 FC         [19] 6530 	ld	-4 (ix), c
    00002643 DD 70 FD         [19] 6531 	ld	-3 (ix), b
                                   6532 ;video.c:909: int16_t ystep = (y < y_fine) ? 1 : -1;
    00002646 DD 7E FA         [19] 6533 	ld	a, -6 (ix)
    00002649 DD 96 F4         [19] 6534 	sub	a, -12 (ix)
    0000264C DD 7E FB         [19] 6535 	ld	a, -5 (ix)
    0000264F DD 9E F5         [19] 6536 	sbc	a, -11 (ix)
    00002652 E2r57r26         [10] 6537 	jp	PO, 00297$
    00002655 EE 80            [ 7] 6538 	xor	a, #0x80
    00002657                       6539 00297$:
    00002657 F2r60r26         [10] 6540 	jp	P, 00136$
    0000265A DD 36 F5 01      [19] 6541 	ld	-11 (ix), #0x01
    0000265E 18 04            [12] 6542 	jr	00137$
    00002660                       6543 00136$:
    00002660 DD 36 F5 FF      [19] 6544 	ld	-11 (ix), #0xff
    00002664                       6545 00137$:
    00002664 DD 7E F5         [19] 6546 	ld	a, -11 (ix)
    00002667 DD 77 F0         [19] 6547 	ld	-16 (ix), a
    0000266A 07               [ 4] 6548 	rlca
    0000266B 9F               [ 4] 6549 	sbc	a, a
    0000266C DD 77 F1         [19] 6550 	ld	-15 (ix), a
    0000266F                       6551 00125$:
                                   6552 ;video.c:912: for (; x <= x_fine; x++) {
    0000266F DD 7E E9         [19] 6553 	ld	a, -23 (ix)
    00002672 DD 96 FE         [19] 6554 	sub	a, -2 (ix)
    00002675 DD 7E EA         [19] 6555 	ld	a, -22 (ix)
    00002678 DD 9E FF         [19] 6556 	sbc	a, -1 (ix)
    0000267B E2r80r26         [10] 6557 	jp	PO, 00298$
    0000267E EE 80            [ 7] 6558 	xor	a, #0x80
    00002680                       6559 00298$:
    00002680 FAr4Br27         [10] 6560 	jp	M, 00127$
                                   6561 ;video.c:914: int16_t realX = steep ? y : x;
    00002683 DD CB EB 46      [20] 6562 	bit	0, -21 (ix)
    00002687 28 0E            [12] 6563 	jr	Z, 00138$
    00002689 DD 7E FA         [19] 6564 	ld	a, -6 (ix)
    0000268C DD 77 F4         [19] 6565 	ld	-12 (ix), a
    0000268F DD 7E FB         [19] 6566 	ld	a, -5 (ix)
    00002692 DD 77 F5         [19] 6567 	ld	-11 (ix), a
    00002695 18 0C            [12] 6568 	jr	00139$
    00002697                       6569 00138$:
    00002697 DD 7E FE         [19] 6570 	ld	a, -2 (ix)
    0000269A DD 77 F4         [19] 6571 	ld	-12 (ix), a
    0000269D DD 7E FF         [19] 6572 	ld	a, -1 (ix)
    000026A0 DD 77 F5         [19] 6573 	ld	-11 (ix), a
    000026A3                       6574 00139$:
    000026A3 DD 7E F4         [19] 6575 	ld	a, -12 (ix)
    000026A6 DD 77 F2         [19] 6576 	ld	-14 (ix), a
    000026A9 DD 7E F5         [19] 6577 	ld	a, -11 (ix)
    000026AC DD 77 F3         [19] 6578 	ld	-13 (ix), a
                                   6579 ;video.c:915: int16_t realY = steep ? x : y;
    000026AF DD CB EB 46      [20] 6580 	bit	0, -21 (ix)
    000026B3 28 0E            [12] 6581 	jr	Z, 00140$
    000026B5 DD 7E FE         [19] 6582 	ld	a, -2 (ix)
    000026B8 DD 77 F4         [19] 6583 	ld	-12 (ix), a
    000026BB DD 7E FF         [19] 6584 	ld	a, -1 (ix)
    000026BE DD 77 F5         [19] 6585 	ld	-11 (ix), a
    000026C1 18 0C            [12] 6586 	jr	00141$
    000026C3                       6587 00140$:
    000026C3 DD 7E FA         [19] 6588 	ld	a, -6 (ix)
    000026C6 DD 77 F4         [19] 6589 	ld	-12 (ix), a
    000026C9 DD 7E FB         [19] 6590 	ld	a, -5 (ix)
    000026CC DD 77 F5         [19] 6591 	ld	-11 (ix), a
    000026CF                       6592 00141$:
                                   6593 ;video.c:919: if (realY >= y_min && realY <= y_max) {
    000026CF DD 4E F4         [19] 6594 	ld	c, -12 (ix)
    000026D2 DD 46 F5         [19] 6595 	ld	b, -11 (ix)
    000026D5 79               [ 4] 6596 	ld	a, c
    000026D6 DD 96 0A         [19] 6597 	sub	a, 10 (ix)
    000026D9 78               [ 4] 6598 	ld	a, b
    000026DA DD 9E 0B         [19] 6599 	sbc	a, 11 (ix)
    000026DD 38 20            [12] 6600 	jr	C, 00119$
    000026DF DD 7E 0C         [19] 6601 	ld	a, 12 (ix)
    000026E2 91               [ 4] 6602 	sub	a, c
    000026E3 DD 7E 0D         [19] 6603 	ld	a, 13 (ix)
    000026E6 98               [ 4] 6604 	sbc	a, b
    000026E7 38 16            [12] 6605 	jr	C, 00119$
                                   6606 ;video.c:920: vga_pixel_fast(realX, realY, color);
    000026E9 DD 6E 08         [19] 6607 	ld	l, 8 (ix)
    000026EC DD 66 09         [19] 6608 	ld	h, 9 (ix)
    000026EF E5               [11] 6609 	push	hl
    000026F0 DD 5E F4         [19] 6610 	ld	e, -12 (ix)
    000026F3 DD 56 F5         [19] 6611 	ld	d, -11 (ix)
    000026F6 DD 6E F2         [19] 6612 	ld	l, -14 (ix)
    000026F9 DD 66 F3         [19] 6613 	ld	h, -13 (ix)
    000026FC CDr61r09         [17] 6614 	call	_vga_pixel_fast
    000026FF                       6615 00119$:
                                   6616 ;video.c:923: err -= dy;
    000026FF DD 7E FC         [19] 6617 	ld	a, -4 (ix)
    00002702 DD 96 EE         [19] 6618 	sub	a, -18 (ix)
    00002705 DD 77 FC         [19] 6619 	ld	-4 (ix), a
    00002708 DD 7E FD         [19] 6620 	ld	a, -3 (ix)
    0000270B DD 9E EF         [19] 6621 	sbc	a, -17 (ix)
    0000270E DD 77 FD         [19] 6622 	ld	-3 (ix), a
                                   6623 ;video.c:924: if (err < 0) {
    00002711 DD 4E FC         [19] 6624 	ld	c, -4 (ix)
    00002714 DD 46 FD         [19] 6625 	ld	b, -3 (ix)
    00002717 CB 78            [ 8] 6626 	bit	7, b
    00002719 28 24            [12] 6627 	jr	Z, 00126$
                                   6628 ;video.c:925: y += ystep;
    0000271B DD 7E F0         [19] 6629 	ld	a, -16 (ix)
    0000271E DD 86 FA         [19] 6630 	add	a, -6 (ix)
    00002721 DD 77 FA         [19] 6631 	ld	-6 (ix), a
    00002724 DD 7E F1         [19] 6632 	ld	a, -15 (ix)
    00002727 DD 8E FB         [19] 6633 	adc	a, -5 (ix)
    0000272A DD 77 FB         [19] 6634 	ld	-5 (ix), a
                                   6635 ;video.c:926: err += dx;
    0000272D DD 7E FC         [19] 6636 	ld	a, -4 (ix)
    00002730 DD 86 EC         [19] 6637 	add	a, -20 (ix)
    00002733 DD 77 FC         [19] 6638 	ld	-4 (ix), a
    00002736 DD 7E FD         [19] 6639 	ld	a, -3 (ix)
    00002739 DD 8E ED         [19] 6640 	adc	a, -19 (ix)
    0000273C DD 77 FD         [19] 6641 	ld	-3 (ix), a
    0000273F                       6642 00126$:
                                   6643 ;video.c:912: for (; x <= x_fine; x++) {
    0000273F DD 34 FE         [23] 6644 	inc	-2 (ix)
    00002742 C2r6Fr26         [10] 6645 	jp	NZ, 00125$
    00002745 DD 34 FF         [23] 6646 	inc	-1 (ix)
    00002748 C3r6Fr26         [10] 6647 	jp	00125$
    0000274B                       6648 00127$:
                                   6649 ;video.c:929: }
    0000274B DD F9            [10] 6650 	ld	sp, ix
    0000274D DD E1            [14] 6651 	pop	ix
    0000274F E1               [10] 6652 	pop	hl
    00002750 F1               [10] 6653 	pop	af
    00002751 F1               [10] 6654 	pop	af
    00002752 F1               [10] 6655 	pop	af
    00002753 F1               [10] 6656 	pop	af
    00002754 F1               [10] 6657 	pop	af
    00002755 E9               [ 4] 6658 	jp	(hl)
                                   6659 ;video.c:931: void draw_rgb_bars() {
                                   6660 ;	---------------------------------
                                   6661 ; Function draw_rgb_bars
                                   6662 ; ---------------------------------
    00002756                       6663 _draw_rgb_bars::
    00002756 DD E5            [15] 6664 	push	ix
    00002758 DD 21 00 00      [14] 6665 	ld	ix,#0
    0000275C DD 39            [15] 6666 	add	ix,sp
    0000275E 21 F3 FF         [10] 6667 	ld	hl, #-13
    00002761 39               [11] 6668 	add	hl, sp
    00002762 F9               [ 6] 6669 	ld	sp, hl
                                   6670 ;video.c:939: uint16_t colors[3] = {0x0038, 0x01C0, 0x0007};
    00002763 DD 36 F3 38      [19] 6671 	ld	-13 (ix), #0x38
    00002767 DD 36 F4 00      [19] 6672 	ld	-12 (ix), #0
    0000276B DD 36 F5 C0      [19] 6673 	ld	-11 (ix), #0xc0
    0000276F DD 36 F6 01      [19] 6674 	ld	-10 (ix), #0x01
    00002773 DD 36 F7 07      [19] 6675 	ld	-9 (ix), #0x07
    00002777 DD 36 F8 00      [19] 6676 	ld	-8 (ix), #0
                                   6677 ;video.c:941: for (uint8_t i = 0; i < 3; i++) {
    0000277B 0E 00            [ 7] 6678 	ld	c, #0x00
    0000277D                       6679 00113$:
    0000277D 79               [ 4] 6680 	ld	a, c
    0000277E D6 03            [ 7] 6681 	sub	a, #0x03
    00002780 D2r24r28         [10] 6682 	jp	NC, 00115$
                                   6683 ;video.c:942: color = colors[i];
    00002783 DD 71 F9         [19] 6684 	ld	-7 (ix), c
    00002786 DD 36 FA 00      [19] 6685 	ld	-6 (ix), #0x00
    0000278A DD 6E F9         [19] 6686 	ld	l, -7 (ix)
    0000278D 26 00            [ 7] 6687 	ld	h, #0x00
    0000278F 29               [11] 6688 	add	hl, hl
    00002790 FD 21 00 00      [14] 6689 	ld	iy, #0
    00002794 FD 39            [15] 6690 	add	iy, sp
    00002796 EB               [ 4] 6691 	ex	de, hl
    00002797 FD 19            [15] 6692 	add	iy, de
    00002799 FD 7E 00         [19] 6693 	ld	a, 0 (iy)
    0000279C DD 77 FB         [19] 6694 	ld	-5 (ix), a
    0000279F FD 7E 01         [19] 6695 	ld	a, 1 (iy)
    000027A2 DD 77 FC         [19] 6696 	ld	-4 (ix), a
                                   6697 ;video.c:944: for (x = 100 + (i * 40); x < 100 + ((i + 1) * 40); x++) {
    000027A5 DD 5E F9         [19] 6698 	ld	e, -7 (ix)
    000027A8 DD 56 FA         [19] 6699 	ld	d, -6 (ix)
    000027AB 6B               [ 4] 6700 	ld	l, e
    000027AC 62               [ 4] 6701 	ld	h, d
    000027AD 29               [11] 6702 	add	hl, hl
    000027AE 29               [11] 6703 	add	hl, hl
    000027AF 19               [11] 6704 	add	hl, de
    000027B0 29               [11] 6705 	add	hl, hl
    000027B1 29               [11] 6706 	add	hl, hl
    000027B2 29               [11] 6707 	add	hl, hl
    000027B3 11 64 00         [10] 6708 	ld	de, #0x0064
    000027B6 19               [11] 6709 	add	hl, de
    000027B7 DD 75 FE         [19] 6710 	ld	-2 (ix), l
    000027BA DD 74 FF         [19] 6711 	ld	-1 (ix), h
    000027BD DD 46 FC         [19] 6712 	ld	b, -4 (ix)
    000027C0                       6713 00110$:
    000027C0 DD 5E F9         [19] 6714 	ld	e, -7 (ix)
    000027C3 16 00            [ 7] 6715 	ld	d, #0x00
    000027C5 13               [ 6] 6716 	inc	de
    000027C6 6B               [ 4] 6717 	ld	l, e
    000027C7 62               [ 4] 6718 	ld	h, d
    000027C8 29               [11] 6719 	add	hl, hl
    000027C9 29               [11] 6720 	add	hl, hl
    000027CA 19               [11] 6721 	add	hl, de
    000027CB 29               [11] 6722 	add	hl, hl
    000027CC 29               [11] 6723 	add	hl, hl
    000027CD 29               [11] 6724 	add	hl, hl
    000027CE 11 64 00         [10] 6725 	ld	de, #0x0064
    000027D1 19               [11] 6726 	add	hl, de
    000027D2 DD 5E FE         [19] 6727 	ld	e, -2 (ix)
    000027D5 DD 56 FF         [19] 6728 	ld	d, -1 (ix)
    000027D8 7B               [ 4] 6729 	ld	a, e
    000027D9 95               [ 4] 6730 	sub	a, l
    000027DA 7A               [ 4] 6731 	ld	a, d
    000027DB 9C               [ 4] 6732 	sbc	a, h
    000027DC 30 42            [12] 6733 	jr	NC, 00114$
                                   6734 ;video.c:949: while (VGA_REG_STAT & 0x01); 
    000027DE DD 7E FF         [19] 6735 	ld	a, -1 (ix)
    000027E1 DD 77 FD         [19] 6736 	ld	-3 (ix), a
    000027E4 11 32 00         [10] 6737 	ld	de, #0x0032
    000027E7                       6738 00101$:
    000027E7 3A 05 C0         [13] 6739 	ld	a, (#0xc005)
    000027EA 0F               [ 4] 6740 	rrca
    000027EB 38 FA            [12] 6741 	jr	C, 00101$
                                   6742 ;video.c:952: VIDEO_REG_X_L = (uint8_t)x;
    000027ED DD 7E FE         [19] 6743 	ld	a, -2 (ix)
    000027F0 21 00 C0         [10] 6744 	ld	hl, #0xc000
    000027F3 77               [ 7] 6745 	ld	(hl), a
                                   6746 ;video.c:953: VIDEO_REG_X_H = (uint8_t)(x >> 8);
    000027F4 2E 01            [ 7] 6747 	ld	l, #0x01
    000027F6 DD 7E FD         [19] 6748 	ld	a, -3 (ix)
    000027F9 77               [ 7] 6749 	ld	(hl), a
                                   6750 ;video.c:954: VIDEO_REG_Y_L = (uint8_t)y;
    000027FA 7B               [ 4] 6751 	ld	a, e
    000027FB 2E 02            [ 7] 6752 	ld	l, #0x02
    000027FD 77               [ 7] 6753 	ld	(hl), a
                                   6754 ;video.c:955: VIDEO_REG_Y_H = (uint8_t)(y >> 8);
    000027FE 7A               [ 4] 6755 	ld	a, d
    000027FF 2E 03            [ 7] 6756 	ld	l, #0x03
    00002801 77               [ 7] 6757 	ld	(hl), a
                                   6758 ;video.c:958: VIDEO_REG_DATA_L = (uint8_t)color;
    00002802 DD 7E FB         [19] 6759 	ld	a, -5 (ix)
    00002805 2E 04            [ 7] 6760 	ld	l, #0x04
    00002807 77               [ 7] 6761 	ld	(hl), a
                                   6762 ;video.c:961: VIDEO_REG_DATA_H = (uint8_t)(color >> 8); 
    00002808 2E 05            [ 7] 6763 	ld	l, #0x05
    0000280A 70               [ 7] 6764 	ld	(hl), b
                                   6765 ;video.c:945: for (y = 50; y < 200; y++) {
    0000280B 13               [ 6] 6766 	inc	de
    0000280C 6B               [ 4] 6767 	ld	l, e
    0000280D 62               [ 4] 6768 	ld	h, d
    0000280E 7D               [ 4] 6769 	ld	a, l
    0000280F D6 C8            [ 7] 6770 	sub	a, #0xc8
    00002811 7C               [ 4] 6771 	ld	a, h
    00002812 DE 00            [ 7] 6772 	sbc	a, #0x00
    00002814 38 D1            [12] 6773 	jr	C, 00101$
                                   6774 ;video.c:944: for (x = 100 + (i * 40); x < 100 + ((i + 1) * 40); x++) {
    00002816 DD 34 FE         [23] 6775 	inc	-2 (ix)
    00002819 20 A5            [12] 6776 	jr	NZ, 00110$
    0000281B DD 34 FF         [23] 6777 	inc	-1 (ix)
    0000281E 18 A0            [12] 6778 	jr	00110$
    00002820                       6779 00114$:
                                   6780 ;video.c:941: for (uint8_t i = 0; i < 3; i++) {
    00002820 0C               [ 4] 6781 	inc	c
    00002821 C3r7Dr27         [10] 6782 	jp	00113$
    00002824                       6783 00115$:
                                   6784 ;video.c:965: }
    00002824 DD F9            [10] 6785 	ld	sp, ix
    00002826 DD E1            [14] 6786 	pop	ix
    00002828 C9               [10] 6787 	ret
                                   6788 	.area _CODE
                                   6789 	.area _INITIALIZER
    00000000                       6790 __xinit___width:
    00000000 80 02                 6791 	.dw #0x0280
    00000002                       6792 __xinit___height:
    00000002 E0 01                 6793 	.dw #0x01e0
    00000004                       6794 __xinit___rotation:
    00000004 00                    6795 	.db #0x00	; 0
    00000005                       6796 __xinit__textwrap:
    00000005 01                    6797 	.db #0x01	;  1
                                   6798 	.area _CABS (ABS)
